(dp1
S'files'
p2
(dp3
S'_var_www_python_ci_adptv_lib_python2_7_site-packages_django_contrib_staticfiles_views'
p4
(dp5
S'index'
p6
(dp7
S'html_filename'
p8
S'_var_www_python_ci_adptv_lib_python2_7_site-packages_django_contrib_staticfiles_views.html'
p9
sS'name'
p10
S'/var/www/python_ci/adptv/lib/python2.7/site-packages/django/contrib/staticfiles/views'
p11
sS'nums'
p12
ccopy_reg
_reconstructor
p13
(ccoverage.results
Numbers
p14
c__builtin__
object
p15
NtRp16
(dp17
S'n_files'
p18
I1
sS'n_branches'
p19
I0
sS'n_statements'
p20
I19
sS'n_excluded'
p21
I0
sS'n_partial_branches'
p22
I0
sS'n_missing'
p23
I10
sS'n_missing_branches'
p24
I0
sbssS'hash'
p25
S"\xb9\xf1o~'!\xf5\xc4Y\xa1\x16\xb7\x84]\x16\x9e"
p26
ssS'_var_www_python_ci_adptv_lib_python2_7_site-packages_django_contrib_staticfiles___init__'
p27
(dp28
g6
(dp29
g8
S'_var_www_python_ci_adptv_lib_python2_7_site-packages_django_contrib_staticfiles___init__.html'
p30
sg10
S'/var/www/python_ci/adptv/lib/python2.7/site-packages/django/contrib/staticfiles/__init__'
p31
sg12
g13
(g14
g15
NtRp32
(dp33
g18
I1
sg19
I0
sg20
I0
sg21
I0
sg22
I0
sg23
I0
sg24
I0
sbssg25
S'\xca\xf5\x9f\x7f\x88\xdfa\x831|T\x1d\xbc}\xa5v'
p34
ssS'_var_www_python_ci_adptv_lib_python2_7_site-packages_django_test___init__'
p35
(dp36
g6
(dp37
g8
S'_var_www_python_ci_adptv_lib_python2_7_site-packages_django_test___init__.html'
p38
sg10
S'/var/www/python_ci/adptv/lib/python2.7/site-packages/django/test/__init__'
p39
sg12
g13
(g14
g15
NtRp40
(dp41
g18
I1
sg19
I0
sg20
I3
sg21
I0
sg22
I0
sg23
I0
sg24
I0
sbssg25
S'"\x05`\xc0z\xbe\xc3\xcc%\x11z\x17\x1a\x15\x89\xef'
p42
ssS'_var_www_python_ci_adptv_lib_python2_7_site-packages_django_test_utils'
p43
(dp44
g6
(dp45
g8
S'_var_www_python_ci_adptv_lib_python2_7_site-packages_django_test_utils.html'
p46
sg10
S'/var/www/python_ci/adptv/lib/python2.7/site-packages/django/test/utils'
p47
sg12
g13
(g14
g15
NtRp48
(dp49
g18
I1
sg19
I0
sg20
I265
sg21
I0
sg22
I0
sg23
I172
sg24
I0
sbssg25
S'\xd9\xdd\xfa\x89Z^u\x13\x0b9)\xdb[\n\xa5|'
p50
ssS'_var_www_python_ci_adptv_lib_python2_7_site-packages_django_db_models_expressions'
p51
(dp52
g6
(dp53
g8
S'_var_www_python_ci_adptv_lib_python2_7_site-packages_django_db_models_expressions.html'
p54
sg10
S'/var/www/python_ci/adptv/lib/python2.7/site-packages/django/db/models/expressions'
p55
sg12
g13
(g14
g15
NtRp56
(dp57
g18
I1
sg19
I0
sg20
I94
sg21
I0
sg22
I0
sg23
I50
sg24
I0
sbssg25
S'\x9fV-\x87T\xd5S\xe7)\xc5@\x05 \xe4\x85$'
p58
ssS'_var_www_python_ci_adptv_lib_python2_7_site-packages_django_utils_ipv6'
p59
(dp60
g6
(dp61
g8
S'_var_www_python_ci_adptv_lib_python2_7_site-packages_django_utils_ipv6.html'
p62
sg10
S'/var/www/python_ci/adptv/lib/python2.7/site-packages/django/utils/ipv6'
p63
sg12
g13
(g14
g15
NtRp64
(dp65
g18
I1
sg19
I0
sg20
I108
sg21
I0
sg22
I0
sg23
I99
sg24
I0
sbssg25
S'\xe3d\xb6\xc6G\xbc\x05=\x85j\xee~\xfb\xd2g\xda'
p66
ssS'_var_www_python_ci_adptv_lib_python2_7_site-packages_django_utils_formats'
p67
(dp68
g6
(dp69
g8
S'_var_www_python_ci_adptv_lib_python2_7_site-packages_django_utils_formats.html'
p70
sg10
S'/var/www/python_ci/adptv/lib/python2.7/site-packages/django/utils/formats'
p71
sg12
g13
(g14
g15
NtRp72
(dp73
g18
I1
sg19
I0
sg20
I117
sg21
I0
sg22
I0
sg23
I92
sg24
I0
sbssg25
S'\x96/mQ\x03`"\x18\xdf\xbb\x04\xe1\x07\xb46]'
p74
ssS'_var_www_python_ci_adptv_lib_python2_7_site-packages_nose_plugins_attrib'
p75
(dp76
g6
(dp77
g8
S'_var_www_python_ci_adptv_lib_python2_7_site-packages_nose_plugins_attrib.html'
p78
sg10
S'/var/www/python_ci/adptv/lib/python2.7/site-packages/nose/plugins/attrib'
p79
sg12
g13
(g14
g15
NtRp80
(dp81
g18
I1
sg19
I0
sg20
I103
sg21
I0
sg22
I0
sg23
I73
sg24
I0
sbssg25
S'n\xb8\xbf\xa4\xc8\x16 \x1d\xe2h\x17u\xba\xea\xdf\xac'
p82
ssS'iris_settings'
p83
(dp84
g6
(dp85
g8
S'iris_settings.html'
p86
sg10
S'iris/settings'
p87
sg12
g13
(g14
g15
NtRp88
(dp89
g18
I1
sg19
I0
sg20
I51
sg21
I0
sg22
I0
sg23
I0
sg24
I0
sbssg25
S'\x85\xbc\x17\x0b(mw\xd9\\\xcb\xdc\xe5\xcfH\xb0>'
p90
ssS'_var_www_python_ci_adptv_lib_python2_7_site-packages_unittest2_main'
p91
(dp92
g6
(dp93
g8
S'_var_www_python_ci_adptv_lib_python2_7_site-packages_unittest2_main.html'
p94
sg10
S'/var/www/python_ci/adptv/lib/python2.7/site-packages/unittest2/main'
p95
sg12
g13
(g14
g15
NtRp96
(dp97
g18
I1
sg19
I0
sg20
I137
sg21
I0
sg22
I0
sg23
I114
sg24
I0
sbssg25
S"\x89\x95K'\x0e\xda\xaa\xe6\x8f\xfd\xc9\xae\xec\r\xcc6"
p98
ssS'_var_www_python_ci_adptv_lib_python2_7_site-packages_django_core_files_locks'
p99
(dp100
g6
(dp101
g8
S'_var_www_python_ci_adptv_lib_python2_7_site-packages_django_core_files_locks.html'
p102
sg10
S'/var/www/python_ci/adptv/lib/python2.7/site-packages/django/core/files/locks'
p103
sg12
g13
(g14
g15
NtRp104
(dp105
g18
I1
sg19
I0
sg20
I40
sg21
I0
sg22
I0
sg23
I23
sg24
I0
sbssg25
S'\xe4\xfe\xbaH\xd9\xb2i_\\\xd6\xd8\xfd\r\x16\xf8\x1a'
p106
ssS'_var_www_python_ci_adptv_lib_python2_7_site-packages_django_http_response'
p107
(dp108
g6
(dp109
g8
S'_var_www_python_ci_adptv_lib_python2_7_site-packages_django_http_response.html'
p110
sg10
S'/var/www/python_ci/adptv/lib/python2.7/site-packages/django/http/response'
p111
sg12
g13
(g14
g15
NtRp112
(dp113
g18
I1
sg19
I0
sg20
I245
sg21
I0
sg22
I0
sg23
I149
sg24
I0
sbssg25
S'\xac1\xb8?\x1e=k\x14\x8c\x1b7\x81\x87Y(\xa2'
p114
ssS'_var_www_python_ci_adptv_lib_python2_7_site-packages_nose_case'
p115
(dp116
g6
(dp117
g8
S'_var_www_python_ci_adptv_lib_python2_7_site-packages_nose_case.html'
p118
sg10
S'/var/www/python_ci/adptv/lib/python2.7/site-packages/nose/case'
p119
sg12
g13
(g14
g15
NtRp120
(dp121
g18
I1
sg19
I0
sg20
I204
sg21
I0
sg22
I0
sg23
I152
sg24
I0
sbssg25
S'\xfd~\xe67y\x9f\xbc\x1c\x0b9hz\x18\xbc`\x12'
p122
ssS'_var_www_python_ci_adptv_lib_python2_7_site-packages_django_template_loader'
p123
(dp124
g6
(dp125
g8
S'_var_www_python_ci_adptv_lib_python2_7_site-packages_django_template_loader.html'
p126
sg10
S'/var/www/python_ci/adptv/lib/python2.7/site-packages/django/template/loader'
p127
sg12
g13
(g14
g15
NtRp128
(dp129
g18
I1
sg19
I0
sg20
I97
sg21
I0
sg22
I0
sg23
I73
sg24
I0
sbssg25
S'\xbeh\x879Mt\xae\xb4\xbek0,>s\xb8%'
p130
ssS'_var_www_python_ci_adptv_lib_python2_7_site-packages_django_core_validators'
p131
(dp132
g6
(dp133
g8
S'_var_www_python_ci_adptv_lib_python2_7_site-packages_django_core_validators.html'
p134
sg10
S'/var/www/python_ci/adptv/lib/python2.7/site-packages/django/core/validators'
p135
sg12
g13
(g14
g15
NtRp136
(dp137
g18
I1
sg19
I0
sg20
I133
sg21
I0
sg22
I0
sg23
I59
sg24
I0
sbssg25
S"\xa8K4y\xb6O\xc5\xe9>\x81`k6''\x91"
p138
ssS'_var_www_python_ci_adptv_lib_python2_7_site-packages_django_utils_encoding'
p139
(dp140
g6
(dp141
g8
S'_var_www_python_ci_adptv_lib_python2_7_site-packages_django_utils_encoding.html'
p142
sg10
S'/var/www/python_ci/adptv/lib/python2.7/site-packages/django/utils/encoding'
p143
sg12
g13
(g14
g15
NtRp144
(dp145
g18
I1
sg19
I0
sg20
I108
sg21
I0
sg22
I0
sg23
I62
sg24
I0
sbssg25
S'\x1c\xb2\x89\x98Z\x8b\xe5\x8ee\xccwe\x17x\x0c\xe1'
p146
ssS'_var_www_python_ci_adptv_lib_python2_7_site-packages_django_test_testcases'
p147
(dp148
g6
(dp149
g8
S'_var_www_python_ci_adptv_lib_python2_7_site-packages_django_test_testcases.html'
p150
sg10
S'/var/www/python_ci/adptv/lib/python2.7/site-packages/django/test/testcases'
p151
sg12
g13
(g14
g15
NtRp152
(dp153
g18
I1
sg19
I0
sg20
I609
sg21
I0
sg22
I0
sg23
I479
sg24
I0
sbssg25
S'\xfc\xe0\x1a\xf3P9\xa1)[N\x83\x19\xb5q%\x88'
p154
ssS'_var_www_python_ci_adptv_lib_python2_7_site-packages_nose_plugins_manager'
p155
(dp156
g6
(dp157
g8
S'_var_www_python_ci_adptv_lib_python2_7_site-packages_nose_plugins_manager.html'
p158
sg10
S'/var/www/python_ci/adptv/lib/python2.7/site-packages/nose/plugins/manager'
p159
sg12
g13
(g14
g15
NtRp160
(dp161
g18
I1
sg19
I0
sg20
I265
sg21
I0
sg22
I0
sg23
I125
sg24
I0
sbssg25
S'\xb4m\xe5\x1f]\xaa1\xb3\xf6~n>L\xe5\xc9\x8e'
p162
ssS'_var_www_python_ci_adptv_lib_python2_7_site-packages_django_nose_fixture_tables'
p163
(dp164
g6
(dp165
g8
S'_var_www_python_ci_adptv_lib_python2_7_site-packages_django_nose_fixture_tables.html'
p166
sg10
S'/var/www/python_ci/adptv/lib/python2.7/site-packages/django_nose/fixture_tables'
p167
sg12
g13
(g14
g15
NtRp168
(dp169
g18
I1
sg19
I0
sg20
I89
sg21
I0
sg22
I0
sg23
I77
sg24
I0
sbssg25
S'\xf3\xb3\x17\x04yF\xad\n\xf9\x9e\x0f$\xdcc!\xd3'
p170
ssS'api_jobs___init__'
p171
(dp172
g6
(dp173
g8
S'api_jobs___init__.html'
p174
sg10
S'api/jobs/__init__'
p175
sg12
g13
(g14
g15
NtRp176
(dp177
g18
I1
sg19
I0
sg20
I0
sg21
I0
sg22
I0
sg23
I0
sg24
I0
sbssg25
S'\xca\xf5\x9f\x7f\x88\xdfa\x831|T\x1d\xbc}\xa5v'
p178
ssS'_var_www_python_ci_adptv_lib_python2_7_site-packages_django_utils_log'
p179
(dp180
g6
(dp181
g8
S'_var_www_python_ci_adptv_lib_python2_7_site-packages_django_utils_log.html'
p182
sg10
S'/var/www/python_ci/adptv/lib/python2.7/site-packages/django/utils/log'
p183
sg12
g13
(g14
g15
NtRp184
(dp185
g18
I1
sg19
I0
sg20
I61
sg21
I0
sg22
I0
sg23
I34
sg24
I0
sbssg25
S'Y\xb0\x80\xba\xbb\x11\x8a\xea\xe7\\\x98b\xa0\x9e;6'
p186
ssS'_var_www_python_ci_adptv_lib_python2_7_site-packages_django_utils_safestring'
p187
(dp188
g6
(dp189
g8
S'_var_www_python_ci_adptv_lib_python2_7_site-packages_django_utils_safestring.html'
p190
sg10
S'/var/www/python_ci/adptv/lib/python2.7/site-packages/django/utils/safestring'
p191
sg12
g13
(g14
g15
NtRp192
(dp193
g18
I1
sg19
I0
sg20
I64
sg21
I0
sg22
I0
sg23
I36
sg24
I0
sbssg25
S'xW\xa9\xbbo\x13\xab\x10\xfd\xc1#\xc0\x012\xdc\x05'
p194
ssS'_var_www_python_ci_adptv_lib_python2_7_site-packages_django_utils_timezone'
p195
(dp196
g6
(dp197
g8
S'_var_www_python_ci_adptv_lib_python2_7_site-packages_django_utils_timezone.html'
p198
sg10
S'/var/www/python_ci/adptv/lib/python2.7/site-packages/django/utils/timezone'
p199
sg12
g13
(g14
g15
NtRp200
(dp201
g18
I1
sg19
I0
sg20
I124
sg21
I0
sg22
I0
sg23
I79
sg24
I0
sbssg25
S'"\xb7\xe5\xf0u\x8a\x02\xb1\xf3\xd5\x18B\x81\xbe \xd3'
p202
ssS'_var_www_python_ci_adptv_lib_python2_7_site-packages_django_db_models_fields_related'
p203
(dp204
g6
(dp205
g8
S'_var_www_python_ci_adptv_lib_python2_7_site-packages_django_db_models_fields_related.html'
p206
sg10
S'/var/www/python_ci/adptv/lib/python2.7/site-packages/django/db/models/fields/related'
p207
sg12
g13
(g14
g15
NtRp208
(dp209
g18
I1
sg19
I0
sg20
I837
sg21
I0
sg22
I0
sg23
I697
sg24
I0
sbssg25
S'RX\xa0J;\x8b\xb6nL\xd1\x8a\xc2\x1e(u\x9e'
p210
ssS'_var_www_python_ci_adptv_lib_python2_7_site-packages_django_utils_translation___init__'
p211
(dp212
g6
(dp213
g8
S'_var_www_python_ci_adptv_lib_python2_7_site-packages_django_utils_translation___init__.html'
p214
sg10
S'/var/www/python_ci/adptv/lib/python2.7/site-packages/django/utils/translation/__init__'
p215
sg12
g13
(g14
g15
NtRp216
(dp217
g18
I1
sg19
I0
sg20
I110
sg21
I0
sg22
I0
sg23
I52
sg24
I0
sbssg25
S'\xe1q\x07b2\xb2:,S\x91n\x05\xf6\xd7s\x88'
p218
ssS'_var_www_python_ci_adptv_lib_python2_7_site-packages_django_utils_itercompat'
p219
(dp220
g6
(dp221
g8
S'_var_www_python_ci_adptv_lib_python2_7_site-packages_django_utils_itercompat.html'
p222
sg10
S'/var/www/python_ci/adptv/lib/python2.7/site-packages/django/utils/itercompat'
p223
sg12
g13
(g14
g15
NtRp224
(dp225
g18
I1
sg19
I0
sg20
I17
sg21
I0
sg22
I0
sg23
I10
sg24
I0
sbssg25
S'\xb5\x86\x9b0\xa4\x93\x1d\xe8<o\xa6E:\x94:\xbc'
p226
ssS'_var_www_python_ci_adptv_lib_python2_7_site-packages_django_template___init__'
p227
(dp228
g6
(dp229
g8
S'_var_www_python_ci_adptv_lib_python2_7_site-packages_django_template___init__.html'
p230
sg10
S'/var/www/python_ci/adptv/lib/python2.7/site-packages/django/template/__init__'
p231
sg12
g13
(g14
g15
NtRp232
(dp233
g18
I1
sg19
I0
sg20
I6
sg21
I0
sg22
I0
sg23
I0
sg24
I0
sbssg25
S'\xc2\n\xeb\xe1\x06\xdfW\rFf\x0f\xe9\x95\x8e[#'
p234
ssS'_var_www_python_ci_adptv_lib_python2_7_site-packages_django_template_loaders_cached'
p235
(dp236
g6
(dp237
g8
S'_var_www_python_ci_adptv_lib_python2_7_site-packages_django_template_loaders_cached.html'
p238
sg10
S'/var/www/python_ci/adptv/lib/python2.7/site-packages/django/template/loaders/cached'
p239
sg12
g13
(g14
g15
NtRp240
(dp241
g18
I1
sg19
I0
sg20
I42
sg21
I0
sg22
I0
sg23
I31
sg24
I0
sbssg25
S'_\x15~\xf5X\xf1\x00\x89\xc2\xd2\xbe\xbd\x93?\xdaK'
p242
ssS'_var_www_python_ci_adptv_lib_python2_7_site-packages_pytz_exceptions'
p243
(dp244
g6
(dp245
g8
S'_var_www_python_ci_adptv_lib_python2_7_site-packages_pytz_exceptions.html'
p246
sg10
S'/var/www/python_ci/adptv/lib/python2.7/site-packages/pytz/exceptions'
p247
sg12
g13
(g14
g15
NtRp248
(dp249
g18
I1
sg19
I0
sg20
I6
sg21
I0
sg22
I0
sg23
I0
sg24
I0
sbssg25
S'\xb1z\nA\xebV\xdewl2\xcd\xec\xd1\xf4\xf1g'
p250
ssS'_var_www_python_ci_adptv_lib_python2_7_site-packages_django_db_models_sql_aggregates'
p251
(dp252
g6
(dp253
g8
S'_var_www_python_ci_adptv_lib_python2_7_site-packages_django_db_models_sql_aggregates.html'
p254
sg10
S'/var/www/python_ci/adptv/lib/python2.7/site-packages/django/db/models/sql/aggregates'
p255
sg12
g13
(g14
g15
NtRp256
(dp257
g18
I1
sg19
I0
sg20
I61
sg21
I0
sg22
I0
sg23
I30
sg24
I0
sbssg25
S'\xc4\x1d\xd6\r\xc7_N\x8aU\xa8\xb2\x17y\x06\x89_'
p258
ssS'_var_www_python_ci_adptv_lib_python2_7_site-packages_django_utils_cache'
p259
(dp260
g6
(dp261
g8
S'_var_www_python_ci_adptv_lib_python2_7_site-packages_django_utils_cache.html'
p262
sg10
S'/var/www/python_ci/adptv/lib/python2.7/site-packages/django/utils/cache'
p263
sg12
g13
(g14
g15
NtRp264
(dp265
g18
I1
sg19
I0
sg20
I133
sg21
I0
sg22
I0
sg23
I109
sg24
I0
sbssg25
S'\xe1\xdf\\P\xe1\xb5\xb4\xdb\xbc\xb8\xca\xa7@@N\xb6'
p266
ssS'_var_www_python_ci_adptv_lib_python2_7_site-packages_django_db_models_loading'
p267
(dp268
g6
(dp269
g8
S'_var_www_python_ci_adptv_lib_python2_7_site-packages_django_db_models_loading.html'
p270
sg10
S'/var/www/python_ci/adptv/lib/python2.7/site-packages/django/db/models/loading'
p271
sg12
g13
(g14
g15
NtRp272
(dp273
g18
I1
sg19
I0
sg20
I152
sg21
I0
sg22
I0
sg23
I112
sg24
I0
sbssg25
S'*\x9f\x18$\x86\x890\x9d\xd84\x87\xf6\xe6_\xffj'
p274
ssS'_var_www_python_ci_adptv_lib_python2_7_site-packages_django_core_management___init__'
p275
(dp276
g6
(dp277
g8
S'_var_www_python_ci_adptv_lib_python2_7_site-packages_django_core_management___init__.html'
p278
sg10
S'/var/www/python_ci/adptv/lib/python2.7/site-packages/django/core/management/__init__'
p279
sg12
g13
(g14
g15
NtRp280
(dp281
g18
I1
sg19
I0
sg20
I185
sg21
I0
sg22
I0
sg23
I90
sg24
I0
sbssg25
S'7\xd1\xd2\xf7\xa4\xdc$\xe1\xc6\xf2\xe7\x9f\xfc\xbb\x95$'
p282
ssS'_var_www_python_ci_adptv_lib_python2_7_site-packages_django_core_management_color'
p283
(dp284
g6
(dp285
g8
S'_var_www_python_ci_adptv_lib_python2_7_site-packages_django_core_management_color.html'
p286
sg10
S'/var/www/python_ci/adptv/lib/python2.7/site-packages/django/core/management/color'
p287
sg12
g13
(g14
g15
NtRp288
(dp289
g18
I1
sg19
I0
sg20
I28
sg21
I0
sg22
I0
sg23
I7
sg24
I0
sbssg25
S'\xd8oN\xc0cR\x00d\t,\xd5}\xf8\xa1\xe7J'
p290
ssS'_var_www_python_ci_adptv_lib_python2_7_site-packages_django_template_base'
p291
(dp292
g6
(dp293
g8
S'_var_www_python_ci_adptv_lib_python2_7_site-packages_django_template_base.html'
p294
sg10
S'/var/www/python_ci/adptv/lib/python2.7/site-packages/django/template/base'
p295
sg12
g13
(g14
g15
NtRp296
(dp297
g18
I1
sg19
I0
sg20
I787
sg21
I0
sg22
I0
sg23
I582
sg24
I0
sbssg25
S'\x1e|X.\x00\tV\r\xaaH\xe5\x06\xbde\xdf\xb3'
p298
ssS'_var_www_python_ci_adptv_lib_python2_7_site-packages_django_utils_datetime_safe'
p299
(dp300
g6
(dp301
g8
S'_var_www_python_ci_adptv_lib_python2_7_site-packages_django_utils_datetime_safe.html'
p302
sg10
S'/var/www/python_ci/adptv/lib/python2.7/site-packages/django/utils/datetime_safe'
p303
sg12
g13
(g14
g15
NtRp304
(dp305
g18
I1
sg19
I0
sg20
I56
sg21
I0
sg22
I0
sg23
I42
sg24
I0
sbssg25
S'\xce\xd7J\x80\x7fi\xb5\xc2\x830\xe4\x10\x06@\xd5H'
p306
ssS'_var_www_python_ci_adptv_lib_python2_7_site-packages_nose_proxy'
p307
(dp308
g6
(dp309
g8
S'_var_www_python_ci_adptv_lib_python2_7_site-packages_nose_proxy.html'
p310
sg10
S'/var/www/python_ci/adptv/lib/python2.7/site-packages/nose/proxy'
p311
sg12
g13
(g14
g15
NtRp312
(dp313
g18
I1
sg19
I0
sg20
I108
sg21
I0
sg22
I0
sg23
I75
sg24
I0
sbssg25
S'\xce\xa0z\xba\x91\xdc\xc7\t\xc4\xa9\xfd^)\xf1+\xbd'
p314
ssS'_var_www_python_ci_adptv_lib_python2_7_site-packages_nose_plugins_doctests'
p315
(dp316
g6
(dp317
g8
S'_var_www_python_ci_adptv_lib_python2_7_site-packages_nose_plugins_doctests.html'
p318
sg10
S'/var/www/python_ci/adptv/lib/python2.7/site-packages/nose/plugins/doctests'
p319
sg12
g13
(g14
g15
NtRp320
(dp321
g18
I1
sg19
I0
sg20
I221
sg21
I0
sg22
I0
sg23
I149
sg24
I0
sbssg25
S'a\xf7\x94\xeb\xa9\x1d1\x1f\xaa7\xfb\xe3\x00\xff\x02\xba'
p322
ssS'_var_www_python_ci_adptv_lib_python2_7_site-packages_django_db_models_options'
p323
(dp324
g6
(dp325
g8
S'_var_www_python_ci_adptv_lib_python2_7_site-packages_django_db_models_options.html'
p326
sg10
S'/var/www/python_ci/adptv/lib/python2.7/site-packages/django/db/models/options'
p327
sg12
g13
(g14
g15
NtRp328
(dp329
g18
I1
sg19
I0
sg20
I348
sg21
I0
sg22
I0
sg23
I289
sg24
I0
sbssg25
S'U\xa1;\x8e\x84d%\x96\x85\x12e)\x14#\xb9\xbf'
p330
ssS'_var_www_python_ci_adptv_lib_python2_7_site-packages_django_utils_baseconv'
p331
(dp332
g6
(dp333
g8
S'_var_www_python_ci_adptv_lib_python2_7_site-packages_django_utils_baseconv.html'
p334
sg10
S'/var/www/python_ci/adptv/lib/python2.7/site-packages/django/utils/baseconv'
p335
sg12
g13
(g14
g15
NtRp336
(dp337
g18
I1
sg19
I0
sg20
I48
sg21
I0
sg22
I0
sg23
I25
sg24
I0
sbssg25
S'\x10o\xe0R\x15\xc8\xd3.&\xfa\xd7"k\xbf\xa1Z'
p338
ssS'_var_www_python_ci_adptv_lib_python2_7_site-packages_django_nose_utils'
p339
(dp340
g6
(dp341
g8
S'_var_www_python_ci_adptv_lib_python2_7_site-packages_django_nose_utils.html'
p342
sg10
S'/var/www/python_ci/adptv/lib/python2.7/site-packages/django_nose/utils'
p343
sg12
g13
(g14
g15
NtRp344
(dp345
g18
I1
sg19
I0
sg20
I12
sg21
I0
sg22
I0
sg23
I6
sg24
I0
sbssg25
S'5%\x1b\xa2Ws=\xa1\x0bhd\x06-\x87p\xed'
p346
ssS'_var_www_python_ci_adptv_lib_python2_7_site-packages_django_core_signals'
p347
(dp348
g6
(dp349
g8
S'_var_www_python_ci_adptv_lib_python2_7_site-packages_django_core_signals.html'
p350
sg10
S'/var/www/python_ci/adptv/lib/python2.7/site-packages/django/core/signals'
p351
sg12
g13
(g14
g15
NtRp352
(dp353
g18
I1
sg19
I0
sg20
I4
sg21
I0
sg22
I0
sg23
I0
sg24
I0
sbssg25
S'\x11)\xaf\xa7<%!O_\xa5\xae\x81Dl\xa7C'
p354
ssS'_var_www_python_ci_adptv_lib_python2_7_site-packages_django_test_html'
p355
(dp356
g6
(dp357
g8
S'_var_www_python_ci_adptv_lib_python2_7_site-packages_django_test_html.html'
p358
sg10
S'/var/www/python_ci/adptv/lib/python2.7/site-packages/django/test/html'
p359
sg12
g13
(g14
g15
NtRp360
(dp361
g18
I1
sg19
I0
sg20
I167
sg21
I0
sg22
I0
sg23
I128
sg24
I0
sbssg25
S'\x06\xa8a\xd2-a\x8b\xeb\xff\xae\x87>\xd0\xdf\xd4\xa7'
p362
ssS'_var_www_python_ci_adptv_lib_python2_7_site-packages_django_utils_html'
p363
(dp364
g6
(dp365
g8
S'_var_www_python_ci_adptv_lib_python2_7_site-packages_django_utils_html.html'
p366
sg10
S'/var/www/python_ci/adptv/lib/python2.7/site-packages/django/utils/html'
p367
sg12
g13
(g14
g15
NtRp368
(dp369
g18
I1
sg19
I0
sg20
I172
sg21
I0
sg22
I0
sg23
I118
sg24
I0
sbssg25
S'\xb6\x95\xef\xd4\xe8a\xca\x96|\x99\xd4\xa3\x1dv8\xf2'
p370
ssS'_var_www_python_ci_adptv_lib_python2_7_site-packages_django_db_models_constants'
p371
(dp372
g6
(dp373
g8
S'_var_www_python_ci_adptv_lib_python2_7_site-packages_django_db_models_constants.html'
p374
sg10
S'/var/www/python_ci/adptv/lib/python2.7/site-packages/django/db/models/constants'
p375
sg12
g13
(g14
g15
NtRp376
(dp377
g18
I1
sg19
I0
sg20
I1
sg21
I0
sg22
I0
sg23
I0
sg24
I0
sbssg25
S'K\x0f@\x85\xa8\x06~v\xd55D;1,\x0f\x95'
p378
ssS'_var_www_python_ci_adptv_lib_python2_7_site-packages_nose_core'
p379
(dp380
g6
(dp381
g8
S'_var_www_python_ci_adptv_lib_python2_7_site-packages_nose_core.html'
p382
sg10
S'/var/www/python_ci/adptv/lib/python2.7/site-packages/nose/core'
p383
sg12
g13
(g14
g15
NtRp384
(dp385
g18
I1
sg19
I0
sg20
I170
sg21
I0
sg22
I0
sg23
I58
sg24
I0
sbssg25
S'e\xf0\x06\x92\xf8y-i\xa7\xed\x8d\xfc\xeel\x8b\xd0'
p386
ssS'_var_www_python_ci_adptv_lib_python2_7_site-packages_django_utils_datastructures'
p387
(dp388
g6
(dp389
g8
S'_var_www_python_ci_adptv_lib_python2_7_site-packages_django_utils_datastructures.html'
p390
sg10
S'/var/www/python_ci/adptv/lib/python2.7/site-packages/django/utils/datastructures'
p391
sg12
g13
(g14
g15
NtRp392
(dp393
g18
I1
sg19
I0
sg20
I307
sg21
I0
sg22
I0
sg23
I192
sg24
I0
sbssg25
S'\xbd\xa7\xa3tvc?\xe5v\xe6\xbb\xd9\x93\xbe\x89\xe3'
p394
ssS'_var_www_python_ci_adptv_lib_python2_7_site-packages_django_core_mail_utils'
p395
(dp396
g6
(dp397
g8
S'_var_www_python_ci_adptv_lib_python2_7_site-packages_django_core_mail_utils.html'
p398
sg10
S'/var/www/python_ci/adptv/lib/python2.7/site-packages/django/core/mail/utils'
p399
sg12
g13
(g14
g15
NtRp400
(dp401
g18
I1
sg19
I0
sg20
I9
sg21
I0
sg22
I0
sg23
I4
sg24
I0
sbssg25
S'1;F\xfb\xb1\rUh=1\x8b}\x9c3\xc3\xbf'
p402
ssS'_var_www_python_ci_adptv_lib_python2_7_site-packages_nose_loader'
p403
(dp404
g6
(dp405
g8
S'_var_www_python_ci_adptv_lib_python2_7_site-packages_nose_loader.html'
p406
sg10
S'/var/www/python_ci/adptv/lib/python2.7/site-packages/nose/loader'
p407
sg12
g13
(g14
g15
NtRp408
(dp409
g18
I1
sg19
I0
sg20
I348
sg21
I0
sg22
I0
sg23
I168
sg24
I0
sbssg25
S'\x13\x1e7Q\xbd\xcc\x04\x14P&)\xad\xeeV{\xec'
p410
ssS'_var_www_python_ci_adptv_lib_python2_7_site-packages_django_utils_numberformat'
p411
(dp412
g6
(dp413
g8
S'_var_www_python_ci_adptv_lib_python2_7_site-packages_django_utils_numberformat.html'
p414
sg10
S'/var/www/python_ci/adptv/lib/python2.7/site-packages/django/utils/numberformat'
p415
sg12
g13
(g14
g15
NtRp416
(dp417
g18
I1
sg19
I0
sg20
I31
sg21
I0
sg22
I0
sg23
I27
sg24
I0
sbssg25
S'\xac_\xe7\xd6\xec"\xf9\xd4B\x8c<\xe2\xd4\xc7[\x8c'
p418
ssS'nodes_tests'
p419
(dp420
g6
(dp421
g8
S'nodes_tests.html'
p422
sg10
S'nodes/tests'
p423
sg12
g13
(g14
g15
NtRp424
(dp425
g18
I1
sg19
I0
sg20
I2
sg21
I0
sg22
I0
sg23
I0
sg24
I0
sbssg25
S'\x0c}\x95\xfd8\x14\x166\xee\x16\x06A^G#\x99'
p426
ssS'_var_www_python_ci_adptv_lib_python2_7_site-packages_nose_pyversion'
p427
(dp428
g6
(dp429
g8
S'_var_www_python_ci_adptv_lib_python2_7_site-packages_nose_pyversion.html'
p430
sg10
S'/var/www/python_ci/adptv/lib/python2.7/site-packages/nose/pyversion'
p431
sg12
g13
(g14
g15
NtRp432
(dp433
g18
I1
sg19
I0
sg20
I131
sg21
I0
sg22
I0
sg23
I84
sg24
I0
sbssg25
S'Y\x04\xde\x9f\x00\x0c\xee\x89H\x85n]\x80\xea\xff\xeb'
p434
ssS'_var_www_python_ci_adptv_lib_python2_7_site-packages_django_utils_unittest___init__'
p435
(dp436
g6
(dp437
g8
S'_var_www_python_ci_adptv_lib_python2_7_site-packages_django_utils_unittest___init__.html'
p438
sg10
S'/var/www/python_ci/adptv/lib/python2.7/site-packages/django/utils/unittest/__init__'
p439
sg12
g13
(g14
g15
NtRp440
(dp441
g18
I1
sg19
I0
sg20
I23
sg21
I0
sg22
I0
sg23
I20
sg24
I0
sbssg25
S'\xa5\x13>|\xb2\x124f~\xb5\xb4\x88\xd6K]t'
p442
ssS'configuration_tests'
p443
(dp444
g6
(dp445
g8
S'configuration_tests.html'
p446
sg10
S'configuration/tests'
p447
sg12
g13
(g14
g15
NtRp448
(dp449
g18
I1
sg19
I0
sg20
I2
sg21
I0
sg22
I0
sg23
I0
sg24
I0
sbssg25
S'\x0c}\x95\xfd8\x14\x166\xee\x16\x06A^G#\x99'
p450
ssS'_var_www_python_ci_adptv_lib_python2_7_site-packages_django_db_models_fields_subclassing'
p451
(dp452
g6
(dp453
g8
S'_var_www_python_ci_adptv_lib_python2_7_site-packages_django_db_models_fields_subclassing.html'
p454
sg10
S'/var/www/python_ci/adptv/lib/python2.7/site-packages/django/db/models/fields/subclassing'
p455
sg12
g13
(g14
g15
NtRp456
(dp457
g18
I1
sg19
I0
sg20
I21
sg21
I0
sg22
I0
sg23
I14
sg24
I0
sbssg25
S'\xfd\xd2YH\xdb\x1a6<\xf8\xa0\xbc\x99fr\x0f\x8a'
p458
ssS'_var_www_python_ci_adptv_lib_python2_7_site-packages_django_core_management_base'
p459
(dp460
g6
(dp461
g8
S'_var_www_python_ci_adptv_lib_python2_7_site-packages_django_core_management_base.html'
p462
sg10
S'/var/www/python_ci/adptv/lib/python2.7/site-packages/django/core/management/base'
p463
sg12
g13
(g14
g15
NtRp464
(dp465
g18
I1
sg19
I0
sg20
I144
sg21
I0
sg22
I0
sg23
I65
sg24
I0
sbssg25
S'\xe0+F\x80"2\x87\x8e\xae\xfd)XV\xbc\x85('
p466
ssS'_var_www_python_ci_adptv_lib_python2_7_site-packages_django_utils_decorators'
p467
(dp468
g6
(dp469
g8
S'_var_www_python_ci_adptv_lib_python2_7_site-packages_django_utils_decorators.html'
p470
sg10
S'/var/www/python_ci/adptv/lib/python2.7/site-packages/django/utils/decorators'
p471
sg12
g13
(g14
g15
NtRp472
(dp473
g18
I1
sg19
I0
sg20
I62
sg21
I0
sg22
I0
sg23
I53
sg24
I0
sbssg25
S'WH?M\xaduT0\xc2\xf0x\xf9\x80gHf'
p474
ssS'_var_www_python_ci_adptv_lib_python2_7_site-packages_django_db_models_deletion'
p475
(dp476
g6
(dp477
g8
S'_var_www_python_ci_adptv_lib_python2_7_site-packages_django_db_models_deletion.html'
p478
sg10
S'/var/www/python_ci/adptv/lib/python2.7/site-packages/django/db/models/deletion'
p479
sg12
g13
(g14
g15
NtRp480
(dp481
g18
I1
sg19
I0
sg20
I152
sg21
I0
sg22
I0
sg23
I126
sg24
I0
sbssg25
S'\x88.\xc7{\x87\xfd\x9aOD9\x9b\x90[^\xe1\xd9'
p482
ssS'_var_www_python_ci_adptv_lib_python2_7_site-packages_nose_plugins_errorclass'
p483
(dp484
g6
(dp485
g8
S'_var_www_python_ci_adptv_lib_python2_7_site-packages_nose_plugins_errorclass.html'
p486
sg10
S'/var/www/python_ci/adptv/lib/python2.7/site-packages/nose/plugins/errorclass'
p487
sg12
g13
(g14
g15
NtRp488
(dp489
g18
I1
sg19
I0
sg20
I65
sg21
I0
sg22
I0
sg23
I30
sg24
I0
sbssg25
S'\xfb\x19\xf8|\x89\xf1Ex\xc0\x1d\x81#\xa9[M\xb7'
p490
ssS'jobs___init__'
p491
(dp492
g6
(dp493
g8
S'jobs___init__.html'
p494
sg10
S'jobs/__init__'
p495
sg12
g13
(g14
g15
NtRp496
(dp497
g18
I1
sg19
I0
sg20
I0
sg21
I0
sg22
I0
sg23
I0
sg24
I0
sbssg25
S'\xca\xf5\x9f\x7f\x88\xdfa\x831|T\x1d\xbc}\xa5v'
p498
ssS'_var_www_python_ci_adptv_lib_python2_7_site-packages_pkg_resources'
p499
(dp500
g6
(dp501
g8
S'_var_www_python_ci_adptv_lib_python2_7_site-packages_pkg_resources.html'
p502
sg10
S'/var/www/python_ci/adptv/lib/python2.7/site-packages/pkg_resources'
p503
sg12
g13
(g14
g15
NtRp504
(dp505
g18
I1
sg19
I0
sg20
I1477
sg21
I0
sg22
I0
sg23
I1357
sg24
I0
sbssg25
S'j\xe5\x11\x1ae\x10k]\x8c\x13[ea,\x94\xd1'
p506
ssS'_var_www_python_ci_adptv_lib_python2_7_site-packages_django_contrib_staticfiles_storage'
p507
(dp508
g6
(dp509
g8
S'_var_www_python_ci_adptv_lib_python2_7_site-packages_django_contrib_staticfiles_storage.html'
p510
sg10
S'/var/www/python_ci/adptv/lib/python2.7/site-packages/django/contrib/staticfiles/storage'
p511
sg12
g13
(g14
g15
NtRp512
(dp513
g18
I1
sg19
I0
sg20
I180
sg21
I0
sg22
I0
sg23
I141
sg24
I0
sbssg25
S'\xa5\xed\xb1\x90\x97\x84\x8f{Q\x11\xbem\xa1]io'
p514
ssS'_var_www_python_ci_adptv_lib_python2_7_site-packages_nose_plugins_collect'
p515
(dp516
g6
(dp517
g8
S'_var_www_python_ci_adptv_lib_python2_7_site-packages_nose_plugins_collect.html'
p518
sg10
S'/var/www/python_ci/adptv/lib/python2.7/site-packages/nose/plugins/collect'
p519
sg12
g13
(g14
g15
NtRp520
(dp521
g18
I1
sg19
I0
sg20
I42
sg21
I0
sg22
I0
sg23
I24
sg24
I0
sbssg25
S'\xc5\x9d\x92\xb1\xef[\x8cj?\x92\xbe\xfe\xa9A&\x80'
p522
ssS'_var_www_python_ci_adptv_lib_python2_7_site-packages_django_http_multipartparser'
p523
(dp524
g6
(dp525
g8
S'_var_www_python_ci_adptv_lib_python2_7_site-packages_django_http_multipartparser.html'
p526
sg10
S'/var/www/python_ci/adptv/lib/python2.7/site-packages/django/http/multipartparser'
p527
sg12
g13
(g14
g15
NtRp528
(dp529
g18
I1
sg19
I0
sg20
I345
sg21
I0
sg22
I0
sg23
I292
sg24
I0
sbssg25
S'\xc2\xaf\xbb\x19m\xc3*K\xad!\x88)"\xd9\x0e\xfc'
p530
ssS'_var_www_python_ci_adptv_lib_python2_7_site-packages_unittest2_result'
p531
(dp532
g6
(dp533
g8
S'_var_www_python_ci_adptv_lib_python2_7_site-packages_unittest2_result.html'
p534
sg10
S'/var/www/python_ci/adptv/lib/python2.7/site-packages/unittest2/result'
p535
sg12
g13
(g14
g15
NtRp536
(dp537
g18
I1
sg19
I0
sg20
I112
sg21
I0
sg22
I0
sg23
I80
sg24
I0
sbssg25
S'\xd4\x18\xffMa\x0e\x07\x1e\xb5\xed\xe3\xc6\x1a\x81\x1f\xf6'
p538
ssS'_var_www_python_ci_adptv_lib_python2_7_site-packages_django_extensions___init__'
p539
(dp540
g6
(dp541
g8
S'_var_www_python_ci_adptv_lib_python2_7_site-packages_django_extensions___init__.html'
p542
sg10
S'/var/www/python_ci/adptv/lib/python2.7/site-packages/django_extensions/__init__'
p543
sg12
g13
(g14
g15
NtRp544
(dp545
g18
I1
sg19
I0
sg20
I7
sg21
I0
sg22
I0
sg23
I2
sg24
I0
sbssg25
S'\xe5y$\x16\xbb|E5\xfbXtUC{\xb1?'
p546
ssS'_var_www_python_ci_adptv_lib_python2_7_site-packages_django_nose_runner'
p547
(dp548
g6
(dp549
g8
S'_var_www_python_ci_adptv_lib_python2_7_site-packages_django_nose_runner.html'
p550
sg10
S'/var/www/python_ci/adptv/lib/python2.7/site-packages/django_nose/runner'
p551
sg12
g13
(g14
g15
NtRp552
(dp553
g18
I1
sg19
I0
sg20
I159
sg21
I0
sg22
I0
sg23
I77
sg24
I0
sbssg25
S'SW\x08\xf3e\xd6\t\xa0\xef3\xb2\xc5\xb0\x0f+\x17'
p554
ssS'_var_www_python_ci_adptv_lib_python2_7_site-packages_django_db_models_fields___init__'
p555
(dp556
g6
(dp557
g8
S'_var_www_python_ci_adptv_lib_python2_7_site-packages_django_db_models_fields___init__.html'
p558
sg10
S'/var/www/python_ci/adptv/lib/python2.7/site-packages/django/db/models/fields/__init__'
p559
sg12
g13
(g14
g15
NtRp560
(dp561
g18
I1
sg19
I0
sg20
I837
sg21
I0
sg22
I0
sg23
I549
sg24
I0
sbssg25
S'\x03\x9c+Eu\xd3\xbd\x027Z\\-a\xde\xaaq'
p562
ssS'_var_www_python_ci_adptv_lib_python2_7_site-packages_django_utils_html_parser'
p563
(dp564
g6
(dp565
g8
S'_var_www_python_ci_adptv_lib_python2_7_site-packages_django_utils_html_parser.html'
p566
sg10
S'/var/www/python_ci/adptv/lib/python2.7/site-packages/django/utils/html_parser'
p567
sg12
g13
(g14
g15
NtRp568
(dp569
g18
I1
sg19
I0
sg20
I82
sg21
I0
sg22
I0
sg23
I74
sg24
I0
sbssg25
S'\x87d\xc4\xd5\x1d\x83\x0c\xb2e#g\xbe1\xa2\x07\xa9'
p570
ssS'_var_www_python_ci_adptv_lib_python2_7_site-packages_nose_util'
p571
(dp572
g6
(dp573
g8
S'_var_www_python_ci_adptv_lib_python2_7_site-packages_nose_util.html'
p574
sg10
S'/var/www/python_ci/adptv/lib/python2.7/site-packages/nose/util'
p575
sg12
g13
(g14
g15
NtRp576
(dp577
g18
I1
sg19
I0
sg20
I344
sg21
I0
sg22
I0
sg23
I215
sg24
I0
sbssg25
S'\xa0Q#\xbfi\xc7*W\xaa\x85~\xd7\x9f\xa8\xbb\x9b'
p578
ssS'_var_www_python_ci_adptv_lib_python2_7_site-packages_nose_importer'
p579
(dp580
g6
(dp581
g8
S'_var_www_python_ci_adptv_lib_python2_7_site-packages_nose_importer.html'
p582
sg10
S'/var/www/python_ci/adptv/lib/python2.7/site-packages/nose/importer'
p583
sg12
g13
(g14
g15
NtRp584
(dp585
g18
I1
sg19
I0
sg20
I101
sg21
I0
sg22
I0
sg23
I22
sg24
I0
sbssg25
S'0U\xa3\xee\x02\xa4)\xbd\x14\xb9\x04\x7fQ&\x7f\x13'
p586
ssS'_var_www_python_ci_adptv_lib_python2_7_site-packages_django_db_backends_signals'
p587
(dp588
g6
(dp589
g8
S'_var_www_python_ci_adptv_lib_python2_7_site-packages_django_db_backends_signals.html'
p590
sg10
S'/var/www/python_ci/adptv/lib/python2.7/site-packages/django/db/backends/signals'
p591
sg12
g13
(g14
g15
NtRp592
(dp593
g18
I1
sg19
I0
sg20
I2
sg21
I0
sg22
I0
sg23
I0
sg24
I0
sbssg25
S'\xd0\x7fA\xfb\xdfoE\xbc.\x17\x18\xd7\xa5\xbf\x04\xe4'
p594
ssS'_var_www_python_ci_adptv_lib_python2_7_site-packages_django_core_cache___init__'
p595
(dp596
g6
(dp597
g8
S'_var_www_python_ci_adptv_lib_python2_7_site-packages_django_core_cache___init__.html'
p598
sg10
S'/var/www/python_ci/adptv/lib/python2.7/site-packages/django/core/cache/__init__'
p599
sg12
g13
(g14
g15
NtRp600
(dp601
g18
I1
sg19
I0
sg20
I58
sg21
I0
sg22
I0
sg23
I29
sg24
I0
sbssg25
S'\xe0\xbd\xc3;\x14@\xc2T\x92\xf7\xad\xeey\xe8~\xd9'
p602
ssS'_var_www_python_ci_adptv_lib_python2_7_site-packages_django_db_models_sql_query'
p603
(dp604
g6
(dp605
g8
S'_var_www_python_ci_adptv_lib_python2_7_site-packages_django_db_models_sql_query.html'
p606
sg10
S'/var/www/python_ci/adptv/lib/python2.7/site-packages/django/db/models/sql/query'
p607
sg12
g13
(g14
g15
NtRp608
(dp609
g18
I1
sg19
I0
sg20
I929
sg21
I0
sg22
I0
sg23
I823
sg24
I0
sbssg25
S'f\x9f\xf3\xddQ\x82\xe6\xc0\x0e\x02\xf7,\x83!\x81y'
p610
ssS'_var_www_python_ci_adptv_lib_python2_7_site-packages_django_utils_timesince'
p611
(dp612
g6
(dp613
g8
S'_var_www_python_ci_adptv_lib_python2_7_site-packages_django_utils_timesince.html'
p614
sg10
S'/var/www/python_ci/adptv/lib/python2.7/site-packages/django/utils/timesince'
p615
sg12
g13
(g14
g15
NtRp616
(dp617
g18
I1
sg19
I0
sg20
I30
sg21
I0
sg22
I0
sg23
I23
sg24
I0
sbssg25
S'\xa2]\xb6\x8b\x16\xc6\xbaB\xa7\x06\xa5\xb2\x8a,E\xdc'
p618
ssS'login_tests'
p619
(dp620
g6
(dp621
g8
S'login_tests.html'
p622
sg10
S'login/tests'
p623
sg12
g13
(g14
g15
NtRp624
(dp625
g18
I1
sg19
I0
sg20
I2
sg21
I0
sg22
I0
sg23
I0
sg24
I0
sbssg25
S'\x0c}\x95\xfd8\x14\x166\xee\x16\x06A^G#\x99'
p626
ssS'_var_www_python_ci_adptv_lib_python2_7_site-packages_nose_plugins_deprecated'
p627
(dp628
g6
(dp629
g8
S'_var_www_python_ci_adptv_lib_python2_7_site-packages_nose_plugins_deprecated.html'
p630
sg10
S'/var/www/python_ci/adptv/lib/python2.7/site-packages/nose/plugins/deprecated'
p631
sg12
g13
(g14
g15
NtRp632
(dp633
g18
I1
sg19
I0
sg20
I16
sg21
I0
sg22
I0
sg23
I2
sg24
I0
sbssg25
S'\xed\xf9a\xbf\x02\xf3?\xc5\x9a\xad\xa4\xd5\xb4M\xa0\xcd'
p634
ssS'_var_www_python_ci_adptv_lib_python2_7_site-packages_django_db_models_query_utils'
p635
(dp636
g6
(dp637
g8
S'_var_www_python_ci_adptv_lib_python2_7_site-packages_django_db_models_query_utils.html'
p638
sg10
S'/var/www/python_ci/adptv/lib/python2.7/site-packages/django/db/models/query_utils'
p639
sg12
g13
(g14
g15
NtRp640
(dp641
g18
I1
sg19
I0
sg20
I100
sg21
I0
sg22
I0
sg23
I73
sg24
I0
sbssg25
S'K\xad}\x7f\xfdB6\xea\x94\xdf\xa3\x01\x84$\x06\xb2'
p642
ssS'api_nodes___init__'
p643
(dp644
g6
(dp645
g8
S'api_nodes___init__.html'
p646
sg10
S'api/nodes/__init__'
p647
sg12
g13
(g14
g15
NtRp648
(dp649
g18
I1
sg19
I0
sg20
I0
sg21
I0
sg22
I0
sg23
I0
sg24
I0
sbssg25
S'\xca\xf5\x9f\x7f\x88\xdfa\x831|T\x1d\xbc}\xa5v'
p650
ssS'_var_www_python_ci_adptv_lib_python2_7_site-packages_django_utils_tree'
p651
(dp652
g6
(dp653
g8
S'_var_www_python_ci_adptv_lib_python2_7_site-packages_django_utils_tree.html'
p654
sg10
S'/var/www/python_ci/adptv/lib/python2.7/site-packages/django/utils/tree'
p655
sg12
g13
(g14
g15
NtRp656
(dp657
g18
I1
sg19
I0
sg20
I50
sg21
I0
sg22
I0
sg23
I35
sg24
I0
sbssg25
S"\x8c\x16f:\xa0\xdc'\xe4\x8co\x990\x9b\t\x05\xc3"
p658
ssS'iris___init__'
p659
(dp660
g6
(dp661
g8
S'iris___init__.html'
p662
sg10
S'iris/__init__'
p663
sg12
g13
(g14
g15
NtRp664
(dp665
g18
I1
sg19
I0
sg20
I0
sg21
I0
sg22
I0
sg23
I0
sg24
I0
sbssg25
S'\xca\xf5\x9f\x7f\x88\xdfa\x831|T\x1d\xbc}\xa5v'
p666
ssS'_var_www_python_ci_adptv_lib_python2_7_site-packages_django_views_static'
p667
(dp668
g6
(dp669
g8
S'_var_www_python_ci_adptv_lib_python2_7_site-packages_django_views_static.html'
p670
sg10
S'/var/www/python_ci/adptv/lib/python2.7/site-packages/django/views/static'
p671
sg12
g13
(g14
g15
NtRp672
(dp673
g18
I1
sg19
I0
sg20
I73
sg21
I0
sg22
I0
sg23
I57
sg24
I0
sbssg25
S'&5\x82E\x8b\xf0\xe2K\x17\xdf\x8b\x1a\xc4\xc8\xad\x83'
p674
ssS'_var_www_python_ci_adptv_lib_python2_7_site-packages_django_contrib_messages___init__'
p675
(dp676
g6
(dp677
g8
S'_var_www_python_ci_adptv_lib_python2_7_site-packages_django_contrib_messages___init__.html'
p678
sg10
S'/var/www/python_ci/adptv/lib/python2.7/site-packages/django/contrib/messages/__init__'
p679
sg12
g13
(g14
g15
NtRp680
(dp681
g18
I1
sg19
I0
sg20
I3
sg21
I0
sg22
I0
sg23
I0
sg24
I0
sbssg25
S"\xf4\x03\xf0-\x85\x9aN\xb8x'\xb8C\xe6\xcc\xc7M"
p682
ssS'_var_www_python_ci_adptv_lib_python2_7_site-packages_nose_plugins_base'
p683
(dp684
g6
(dp685
g8
S'_var_www_python_ci_adptv_lib_python2_7_site-packages_nose_plugins_base.html'
p686
sg10
S'/var/www/python_ci/adptv/lib/python2.7/site-packages/nose/plugins/base'
p687
sg12
g13
(g14
g15
NtRp688
(dp689
g18
I1
sg19
I0
sg20
I195
sg21
I0
sg22
I0
sg23
I59
sg24
I0
sbssg25
S'QCh\xb4\\\xe0e\xb1?\\;\rt\xdc6h'
p690
ssS'_var_www_python_ci_adptv_lib_python2_7_site-packages_nose_plugins_multiprocess'
p691
(dp692
g6
(dp693
g8
S'_var_www_python_ci_adptv_lib_python2_7_site-packages_nose_plugins_multiprocess.html'
p694
sg10
S'/var/www/python_ci/adptv/lib/python2.7/site-packages/nose/plugins/multiprocess'
p695
sg12
g13
(g14
g15
NtRp696
(dp697
g18
I1
sg19
I0
sg20
I490
sg21
I0
sg22
I0
sg23
I410
sg24
I0
sbssg25
S"\x80'DFL\xae\x1eQ\x0b\xa0\xc8_!y\x81\xbc"
p698
ssS'_var_www_python_ci_adptv_lib_python2_7_site-packages_nose_plugins_testid'
p699
(dp700
g6
(dp701
g8
S'_var_www_python_ci_adptv_lib_python2_7_site-packages_nose_plugins_testid.html'
p702
sg10
S'/var/www/python_ci/adptv/lib/python2.7/site-packages/nose/plugins/testid'
p703
sg12
g13
(g14
g15
NtRp704
(dp705
g18
I1
sg19
I0
sg20
I133
sg21
I0
sg22
I0
sg23
I95
sg24
I0
sbssg25
S"\xed,\xcb\xa6\xad\x94IW\xb2(\xeb\xf2\xc7'\xebq"
p706
ssS'_var_www_python_ci_adptv_lib_python2_7_site-packages_django_core_management_sql'
p707
(dp708
g6
(dp709
g8
S'_var_www_python_ci_adptv_lib_python2_7_site-packages_django_core_management_sql.html'
p710
sg10
S'/var/www/python_ci/adptv/lib/python2.7/site-packages/django/core/management/sql'
p711
sg12
g13
(g14
g15
NtRp712
(dp713
g18
I1
sg19
I0
sg20
I126
sg21
I0
sg22
I0
sg23
I106
sg24
I0
sbssg25
S'\x00\x13W9\xc1)\x9a2\x1b\xea\xf8z;\xaa\x88\x84'
p714
ssS'_var_www_python_ci_adptv_lib_python2_7_site-packages_django_core_mail___init__'
p715
(dp716
g6
(dp717
g8
S'_var_www_python_ci_adptv_lib_python2_7_site-packages_django_core_mail___init__.html'
p718
sg10
S'/var/www/python_ci/adptv/lib/python2.7/site-packages/django/core/mail/__init__'
p719
sg12
g13
(g14
g15
NtRp720
(dp721
g18
I1
sg19
I0
sg20
I29
sg21
I0
sg22
I0
sg23
I19
sg24
I0
sbssg25
S'\xa329U/O6F\xe8A+\xba\xb3\x96~\x7f'
p722
ssS'_var_www_python_ci_adptv_lib_python2_7_site-packages_django_contrib_messages_constants'
p723
(dp724
g6
(dp725
g8
S'_var_www_python_ci_adptv_lib_python2_7_site-packages_django_contrib_messages_constants.html'
p726
sg10
S'/var/www/python_ci/adptv/lib/python2.7/site-packages/django/contrib/messages/constants'
p727
sg12
g13
(g14
g15
NtRp728
(dp729
g18
I1
sg19
I0
sg20
I6
sg21
I0
sg22
I0
sg23
I0
sg24
I0
sbssg25
S'\x99u\x1fZpQ\xa3b\x8f# l\x06w\xe1\xdb'
p730
ssS'_var_www_python_ci_adptv_lib_python2_7_site-packages_django_db_backends_creation'
p731
(dp732
g6
(dp733
g8
S'_var_www_python_ci_adptv_lib_python2_7_site-packages_django_db_backends_creation.html'
p734
sg10
S'/var/www/python_ci/adptv/lib/python2.7/site-packages/django/db/backends/creation'
p735
sg12
g13
(g14
g15
NtRp736
(dp737
g18
I1
sg19
I0
sg20
I254
sg21
I0
sg22
I0
sg23
I221
sg24
I0
sbssg25
S'\x193\xdf\x17\x93\x1d\xcc\xc7\xf1\xaf\xdf7OU\x9b\x19'
p738
ssS'_var_www_python_ci_adptv_lib_python2_7_site-packages_django_utils_regex_helper'
p739
(dp740
g6
(dp741
g8
S'_var_www_python_ci_adptv_lib_python2_7_site-packages_django_utils_regex_helper.html'
p742
sg10
S'/var/www/python_ci/adptv/lib/python2.7/site-packages/django/utils/regex_helper'
p743
sg12
g13
(g14
g15
NtRp744
(dp745
g18
I1
sg19
I0
sg20
I188
sg21
I0
sg22
I0
sg23
I175
sg24
I0
sbssg25
S'\xc4\x88\xec\xef\xc8$3\xf7\x95\xc4\x86\x1a?\x06\x7f7'
p746
ssS'_var_www_python_ci_adptv_lib_python2_7_site-packages_django_nose___init__'
p747
(dp748
g6
(dp749
g8
S'_var_www_python_ci_adptv_lib_python2_7_site-packages_django_nose___init__.html'
p750
sg10
S'/var/www/python_ci/adptv/lib/python2.7/site-packages/django_nose/__init__'
p751
sg12
g13
(g14
g15
NtRp752
(dp753
g18
I1
sg19
I0
sg20
I5
sg21
I0
sg22
I0
sg23
I0
sg24
I0
sbssg25
S'?O:\xa0\x87c\xbd\x9e~J\x18$<$X1'
p754
ssS'_var_www_python_ci_adptv_lib_python2_7_site-packages_django_core_files_temp'
p755
(dp756
g6
(dp757
g8
S'_var_www_python_ci_adptv_lib_python2_7_site-packages_django_core_files_temp.html'
p758
sg10
S'/var/www/python_ci/adptv/lib/python2.7/site-packages/django/core/files/temp'
p759
sg12
g13
(g14
g15
NtRp760
(dp761
g18
I1
sg19
I0
sg20
I30
sg21
I0
sg22
I0
sg23
I23
sg24
I0
sbssg25
S'\xacs\xd0D\xffdr\x02\xfc}\x11\xc6\xb0s\xc7\xd8'
p762
ssS'_var_www_python_ci_adptv_lib_python2_7_site-packages_django_core_files_utils'
p763
(dp764
g6
(dp765
g8
S'_var_www_python_ci_adptv_lib_python2_7_site-packages_django_core_files_utils.html'
p766
sg10
S'/var/www/python_ci/adptv/lib/python2.7/site-packages/django/core/files/utils'
p767
sg12
g13
(g14
g15
NtRp768
(dp769
g18
I1
sg19
I0
sg20
I19
sg21
I0
sg22
I0
sg23
I1
sg24
I0
sbssg25
S'\xf9\x11l\xd6u\x8d\xd2\xe3g\x05F\xd6{F\x15\xdc'
p770
ssS'_var_www_python_ci_adptv_lib_python2_7_site-packages_django_core_management_commands_loaddata'
p771
(dp772
g6
(dp773
g8
S'_var_www_python_ci_adptv_lib_python2_7_site-packages_django_core_management_commands_loaddata.html'
p774
sg10
S'/var/www/python_ci/adptv/lib/python2.7/site-packages/django/core/management/commands/loaddata'
p775
sg12
g13
(g14
g15
NtRp776
(dp777
g18
I1
sg19
I0
sg20
I163
sg21
I0
sg22
I0
sg23
I127
sg24
I0
sbssg25
S'\xd8\x05B\xd07\xd8b\x87\xc2\xba\x88^oh\x8e\xc7'
p778
ssS'_var_www_python_ci_adptv_lib_python2_7_site-packages_django_utils_text'
p779
(dp780
g6
(dp781
g8
S'_var_www_python_ci_adptv_lib_python2_7_site-packages_django_utils_text.html'
p782
sg10
S'/var/www/python_ci/adptv/lib/python2.7/site-packages/django/utils/text'
p783
sg12
g13
(g14
g15
NtRp784
(dp785
g18
I1
sg19
I0
sg20
I227
sg21
I0
sg22
I0
sg23
I168
sg24
I0
sbssg25
S'Y\xf9\xda\x8e\xc7\xdeD\xe7\x12D\xe9X\xeb\xb9R\x8e'
p786
ssS'_var_www_python_ci_adptv_lib_python2_7_site-packages_django_utils__os'
p787
(dp788
g6
(dp789
g8
S'_var_www_python_ci_adptv_lib_python2_7_site-packages_django_utils__os.html'
p790
sg10
S'/var/www/python_ci/adptv/lib/python2.7/site-packages/django/utils/_os'
p791
sg12
g13
(g14
g15
NtRp792
(dp793
g18
I1
sg19
I0
sg20
I43
sg21
I0
sg22
I0
sg23
I22
sg24
I0
sbssg25
S'T\xce\xd3"\x1f\xc5k\x05\x92\x85\x9b\xd8v\xc8\xa6\xcf'
p794
ssS'_var_www_python_ci_adptv_lib_python2_7_site-packages_django_views_debug'
p795
(dp796
g6
(dp797
g8
S'_var_www_python_ci_adptv_lib_python2_7_site-packages_django_views_debug.html'
p798
sg10
S'/var/www/python_ci/adptv/lib/python2.7/site-packages/django/views/debug'
p799
sg12
g13
(g14
g15
NtRp800
(dp801
g18
I1
sg19
I0
sg20
I288
sg21
I0
sg22
I0
sg23
I239
sg24
I0
sbssg25
S'J\xa6\xd5\xd1|i\x8bK#A\x94\xf1\xb8\xb1\xc9\xc3'
p802
ssS'_var_www_python_ci_adptv_lib_python2_7_site-packages_django___init__'
p803
(dp804
g6
(dp805
g8
S'_var_www_python_ci_adptv_lib_python2_7_site-packages_django___init__.html'
p806
sg10
S'/var/www/python_ci/adptv/lib/python2.7/site-packages/django/__init__'
p807
sg12
g13
(g14
g15
NtRp808
(dp809
g18
I1
sg19
I0
sg20
I4
sg21
I0
sg22
I0
sg23
I0
sg24
I0
sbssg25
S'\xed@1.\x94\xf7(\x03hM\xb3\n\x0f\xac\xd4;'
p810
ssS'_var_www_python_ci_adptv_lib_python2_7_site-packages_django_nose_testcases'
p811
(dp812
g6
(dp813
g8
S'_var_www_python_ci_adptv_lib_python2_7_site-packages_django_nose_testcases.html'
p814
sg10
S'/var/www/python_ci/adptv/lib/python2.7/site-packages/django_nose/testcases'
p815
sg12
g13
(g14
g15
NtRp816
(dp817
g18
I1
sg19
I0
sg20
I60
sg21
I0
sg22
I0
sg23
I43
sg24
I0
sbssg25
S'\xcafQ}\x0f\xaf\xf9e\xf3B\xf7\xd6\xe2\x94{\xeb'
p818
ssS'_var_www_python_ci_adptv_lib_python2_7_site-packages_django_conf___init__'
p819
(dp820
g6
(dp821
g8
S'_var_www_python_ci_adptv_lib_python2_7_site-packages_django_conf___init__.html'
p822
sg10
S'/var/www/python_ci/adptv/lib/python2.7/site-packages/django/conf/__init__'
p823
sg12
g13
(g14
g15
NtRp824
(dp825
g18
I1
sg19
I0
sg20
I101
sg21
I0
sg22
I0
sg23
I32
sg24
I0
sbssg25
S"u\\9z\x85\x96\xb5q\x1f\xbd'\xf4\x91Z\x8c\x1c"
p826
ssS'_var_www_python_ci_adptv_lib_python2_7_site-packages_django_contrib_messages_api'
p827
(dp828
g6
(dp829
g8
S'_var_www_python_ci_adptv_lib_python2_7_site-packages_django_contrib_messages_api.html'
p830
sg10
S'/var/www/python_ci/adptv/lib/python2.7/site-packages/django/contrib/messages/api'
p831
sg12
g13
(g14
g15
NtRp832
(dp833
g18
I1
sg19
I0
sg20
I34
sg21
I0
sg22
I0
sg23
I20
sg24
I0
sbssg25
S'9\x99\x8a)\xc55\n\x9c\xe2\x9c[C\x0b\xf9\xfd\xf9'
p834
ssS'_var_www_python_ci_adptv_lib_python2_7_site-packages_django_template_defaultfilters'
p835
(dp836
g6
(dp837
g8
S'_var_www_python_ci_adptv_lib_python2_7_site-packages_django_template_defaultfilters.html'
p838
sg10
S'/var/www/python_ci/adptv/lib/python2.7/site-packages/django/template/defaultfilters'
p839
sg12
g13
(g14
g15
NtRp840
(dp841
g18
I1
sg19
I0
sg20
I454
sg21
I0
sg22
I0
sg23
I324
sg24
I0
sbssg25
S'\xd0&\x04\xbf{\x92\x84\xb7\x84)\xd37a\xca\xd6\xf2'
p842
ssS'_var_www_python_ci_adptv_lib_python2_7_site-packages_nose_plugins_plugintest'
p843
(dp844
g6
(dp845
g8
S'_var_www_python_ci_adptv_lib_python2_7_site-packages_nose_plugins_plugintest.html'
p846
sg10
S'/var/www/python_ci/adptv/lib/python2.7/site-packages/nose/plugins/plugintest'
p847
sg12
g13
(g14
g15
NtRp848
(dp849
g18
I1
sg19
I0
sg20
I155
sg21
I0
sg22
I0
sg23
I111
sg24
I0
sbssg25
S'\xa2\x81J\x80\xd6\xedX\xfb\xe2%(?\xce\xe3\x02\x95'
p850
ssS'_var_www_python_ci_adptv_lib_python2_7_site-packages_django_core_files_base'
p851
(dp852
g6
(dp853
g8
S'_var_www_python_ci_adptv_lib_python2_7_site-packages_django_core_files_base.html'
p854
sg10
S'/var/www/python_ci/adptv/lib/python2.7/site-packages/django/core/files/base'
p855
sg12
g13
(g14
g15
NtRp856
(dp857
g18
I1
sg19
I0
sg20
I106
sg21
I0
sg22
I0
sg23
I70
sg24
I0
sbssg25
S'\xfd!9\x17W\xc9!<q!\xa1\xfa9,\x1e\xc8'
p858
ssS'configuration___init__'
p859
(dp860
g6
(dp861
g8
S'configuration___init__.html'
p862
sg10
S'configuration/__init__'
p863
sg12
g13
(g14
g15
NtRp864
(dp865
g18
I1
sg19
I0
sg20
I0
sg21
I0
sg22
I0
sg23
I0
sg24
I0
sbssg25
S'\xca\xf5\x9f\x7f\x88\xdfa\x831|T\x1d\xbc}\xa5v'
p866
ssS'_var_www_python_ci_adptv_lib_python2_7_site-packages_django_nose_management___init__'
p867
(dp868
g6
(dp869
g8
S'_var_www_python_ci_adptv_lib_python2_7_site-packages_django_nose_management___init__.html'
p870
sg10
S'/var/www/python_ci/adptv/lib/python2.7/site-packages/django_nose/management/__init__'
p871
sg12
g13
(g14
g15
NtRp872
(dp873
g18
I1
sg19
I0
sg20
I0
sg21
I0
sg22
I0
sg23
I0
sg24
I0
sbssg25
S'\xca\xf5\x9f\x7f\x88\xdfa\x831|T\x1d\xbc}\xa5v'
p874
ssS'_var_www_python_ci_adptv_lib_python2_7_site-packages_django_db_models_sql_expressions'
p875
(dp876
g6
(dp877
g8
S'_var_www_python_ci_adptv_lib_python2_7_site-packages_django_db_models_sql_expressions.html'
p878
sg10
S'/var/www/python_ci/adptv/lib/python2.7/site-packages/django/db/models/sql/expressions'
p879
sg12
g13
(g14
g15
NtRp880
(dp881
g18
I1
sg19
I0
sg20
I81
sg21
I0
sg22
I0
sg23
I66
sg24
I0
sbssg25
S'\xa3\xe7\x80\xde\xe5\xba\xb7\x93`\xeb\x1a2\x9f\x98\x88\xb9'
p882
ssS'_var_www_python_ci_adptv_lib_python2_7_site-packages_django_core_serializers___init__'
p883
(dp884
g6
(dp885
g8
S'_var_www_python_ci_adptv_lib_python2_7_site-packages_django_core_serializers___init__.html'
p886
sg10
S'/var/www/python_ci/adptv/lib/python2.7/site-packages/django/core/serializers/__init__'
p887
sg12
g13
(g14
g15
NtRp888
(dp889
g18
I1
sg19
I0
sg20
I64
sg21
I0
sg22
I0
sg23
I45
sg24
I0
sbssg25
S"0Q'\x8fx)\xd2\xde\xcd],\xa4\xe2\xc7\xda\x00"
p890
ssS'_var_www_python_ci_adptv_lib_python2_7_site-packages_django_test_runner'
p891
(dp892
g6
(dp893
g8
S'_var_www_python_ci_adptv_lib_python2_7_site-packages_django_test_runner.html'
p894
sg10
S'/var/www/python_ci/adptv/lib/python2.7/site-packages/django/test/runner'
p895
sg12
g13
(g14
g15
NtRp896
(dp897
g18
I1
sg19
I0
sg20
I150
sg21
I0
sg22
I0
sg23
I114
sg24
I0
sbssg25
S'\x19"\xcda\xe6\x10\x8eVT+\xc9v\x8c\x1f\xc1R'
p898
ssS'_var_www_python_ci_adptv_lib_python2_7_site-packages_django_core_mail_message'
p899
(dp900
g6
(dp901
g8
S'_var_www_python_ci_adptv_lib_python2_7_site-packages_django_core_mail_message.html'
p902
sg10
S'/var/www/python_ci/adptv/lib/python2.7/site-packages/django/core/mail/message'
p903
sg12
g13
(g14
g15
NtRp904
(dp905
g18
I1
sg19
I0
sg20
I217
sg21
I0
sg22
I0
sg23
I163
sg24
I0
sbssg25
S'\xdf\xf2\x0e\xacu\xd8w\x8ea\x86\xc4ig\x02\xc0\xc3'
p906
ssS'_var_www_python_ci_adptv_lib_python2_7_site-packages_django_db_models_sql_datastructures'
p907
(dp908
g6
(dp909
g8
S'_var_www_python_ci_adptv_lib_python2_7_site-packages_django_db_models_sql_datastructures.html'
p910
sg10
S'/var/www/python_ci/adptv/lib/python2.7/site-packages/django/db/models/sql/datastructures'
p911
sg12
g13
(g14
g15
NtRp912
(dp913
g18
I1
sg19
I0
sg20
I34
sg21
I0
sg22
I0
sg23
I18
sg24
I0
sbssg25
S'\xa4\xc3\xb0~\n\x90 \x96\x85sR\x14r\xa8\xff\x81'
p914
ssS'_var_www_python_ci_adptv_lib_python2_7_site-packages_django_http_request'
p915
(dp916
g6
(dp917
g8
S'_var_www_python_ci_adptv_lib_python2_7_site-packages_django_http_request.html'
p918
sg10
S'/var/www/python_ci/adptv/lib/python2.7/site-packages/django/http/request'
p919
sg12
g13
(g14
g15
NtRp920
(dp921
g18
I1
sg19
I0
sg20
I291
sg21
I0
sg22
I0
sg23
I216
sg24
I0
sbssg25
S';D\xf5\x19\x0e`r\t\xb0\xe1;:\x11X\xd0\xde'
p922
ssS'_var_www_python_ci_adptv_lib_python2_7_site-packages_django_utils_termcolors'
p923
(dp924
g6
(dp925
g8
S'_var_www_python_ci_adptv_lib_python2_7_site-packages_django_utils_termcolors.html'
p926
sg10
S'/var/www/python_ci/adptv/lib/python2.7/site-packages/django/utils/termcolors'
p927
sg12
g13
(g14
g15
NtRp928
(dp929
g18
I1
sg19
I0
sg20
I57
sg21
I0
sg22
I0
sg23
I40
sg24
I0
sbssg25
S'\xd7\xa8,\x9e\xfa\xda\xaf\t8h\xcf\xbc+^\x06\xa0'
p930
ssS'_var_www_python_ci_adptv_lib_python2_7_site-packages_nose_plugins_failuredetail'
p931
(dp932
g6
(dp933
g8
S'_var_www_python_ci_adptv_lib_python2_7_site-packages_nose_plugins_failuredetail.html'
p934
sg10
S'/var/www/python_ci/adptv/lib/python2.7/site-packages/nose/plugins/failuredetail'
p935
sg12
g13
(g14
g15
NtRp936
(dp937
g18
I1
sg19
I0
sg20
I20
sg21
I0
sg22
I0
sg23
I8
sg24
I0
sbssg25
S'DE\xa00J\xff\xc8\xf2q\xcde\xcb\x89\xa1\xf8\x1c'
p938
ssS'_var_www_python_ci_adptv_lib_python2_7_site-packages_django_middleware___init__'
p939
(dp940
g6
(dp941
g8
S'_var_www_python_ci_adptv_lib_python2_7_site-packages_django_middleware___init__.html'
p942
sg10
S'/var/www/python_ci/adptv/lib/python2.7/site-packages/django/middleware/__init__'
p943
sg12
g13
(g14
g15
NtRp944
(dp945
g18
I1
sg19
I0
sg20
I0
sg21
I0
sg22
I0
sg23
I0
sg24
I0
sbssg25
S'\xca\xf5\x9f\x7f\x88\xdfa\x831|T\x1d\xbc}\xa5v'
p946
ssS'_var_www_python_ci_adptv_lib_python2_7_site-packages_django_http_cookie'
p947
(dp948
g6
(dp949
g8
S'_var_www_python_ci_adptv_lib_python2_7_site-packages_django_http_cookie.html'
p950
sg10
S'/var/www/python_ci/adptv/lib/python2.7/site-packages/django/http/cookie'
p951
sg12
g13
(g14
g15
NtRp952
(dp953
g18
I1
sg19
I0
sg20
I53
sg21
I0
sg22
I0
sg23
I35
sg24
I0
sbssg25
S'\xfa\xea\xea`\x8b\x1fj\xea\x8a!0\xcf=%\xd8Q'
p954
ssS'_var_www_python_ci_adptv_lib_python2_7_site-packages_django_contrib_messages_storage___init__'
p955
(dp956
g6
(dp957
g8
S'_var_www_python_ci_adptv_lib_python2_7_site-packages_django_contrib_messages_storage___init__.html'
p958
sg10
S'/var/www/python_ci/adptv/lib/python2.7/site-packages/django/contrib/messages/storage/__init__'
p959
sg12
g13
(g14
g15
NtRp960
(dp961
g18
I1
sg19
I0
sg20
I3
sg21
I0
sg22
I0
sg23
I0
sg24
I0
sbssg25
S'V\x94\xb8\x83~\xeb\xbbT\xecJ\x02\xdd*\x08B\xad'
p962
ssS'_var_www_python_ci_adptv_lib_python2_7_site-packages_django_core_files_uploadhandler'
p963
(dp964
g6
(dp965
g8
S'_var_www_python_ci_adptv_lib_python2_7_site-packages_django_core_files_uploadhandler.html'
p966
sg10
S'/var/www/python_ci/adptv/lib/python2.7/site-packages/django/core/files/uploadhandler'
p967
sg12
g13
(g14
g15
NtRp968
(dp969
g18
I1
sg19
I0
sg20
I76
sg21
I0
sg22
I0
sg23
I40
sg24
I0
sbssg25
S'\x1ah\xd0\xcd\xde\x14b\xf9\x81H\xf6h\xc0\x8d\x94\xe3'
p970
ssS'frontend_utils___init__'
p971
(dp972
g6
(dp973
g8
S'frontend_utils___init__.html'
p974
sg10
S'frontend_utils/__init__'
p975
sg12
g13
(g14
g15
NtRp976
(dp977
g18
I1
sg19
I0
sg20
I0
sg21
I0
sg22
I0
sg23
I0
sg24
I0
sbssg25
S'\xca\xf5\x9f\x7f\x88\xdfa\x831|T\x1d\xbc}\xa5v'
p978
ssS'_var_www_python_ci_adptv_lib_python2_7_site-packages_nose_plugins_capture'
p979
(dp980
g6
(dp981
g8
S'_var_www_python_ci_adptv_lib_python2_7_site-packages_nose_plugins_capture.html'
p982
sg10
S'/var/www/python_ci/adptv/lib/python2.7/site-packages/nose/plugins/capture'
p983
sg12
g13
(g14
g15
NtRp984
(dp985
g18
I1
sg19
I0
sg20
I56
sg21
I0
sg22
I0
sg23
I16
sg24
I0
sbssg25
S'P\x08\xf52\xce\x94\x97kY\xad\xbb.\xec\x03\xc3\xf5'
p986
ssS'_var_www_python_ci_adptv_lib_python2_7_site-packages_django_core_cache_backends_base'
p987
(dp988
g6
(dp989
g8
S'_var_www_python_ci_adptv_lib_python2_7_site-packages_django_core_cache_backends_base.html'
p990
sg10
S'/var/www/python_ci/adptv/lib/python2.7/site-packages/django/core/cache/backends/base'
p991
sg12
g13
(g14
g15
NtRp992
(dp993
g18
I1
sg19
I0
sg20
I100
sg21
I0
sg22
I0
sg23
I53
sg24
I0
sbssg25
S'\xe0\\7=N\xbb\xcb\xdc\x00c\xa9A\xc5\xe9R\xbc'
p994
ssS'_var_www_python_ci_adptv_lib_python2_7_site-packages_django_db_models_sql_constants'
p995
(dp996
g6
(dp997
g8
S'_var_www_python_ci_adptv_lib_python2_7_site-packages_django_db_models_sql_constants.html'
p998
sg10
S'/var/www/python_ci/adptv/lib/python2.7/site-packages/django/db/models/sql/constants'
p999
sg12
g13
(g14
g15
NtRp1000
(dp1001
g18
I1
sg19
I0
sg20
I10
sg21
I0
sg22
I0
sg23
I0
sg24
I0
sbssg25
S'\xb5DP\xdaM\xcf\x15R\x18\xe5~"\xea\xbc\xf2\xb2'
p1002
ssS'_var_www_python_ci_adptv_lib_python2_7_site-packages_django_template_smartif'
p1003
(dp1004
g6
(dp1005
g8
S'_var_www_python_ci_adptv_lib_python2_7_site-packages_django_template_smartif.html'
p1006
sg10
S'/var/www/python_ci/adptv/lib/python2.7/site-packages/django/template/smartif'
p1007
sg12
g13
(g14
g15
NtRp1008
(dp1009
g18
I1
sg19
I0
sg20
I104
sg21
I0
sg22
I0
sg23
I61
sg24
I0
sbssg25
S'\xff7VbS!ky \xa4\x05_\x8c\xef\xf6\x9a'
p1010
ssS'_var_www_python_ci_adptv_lib_python2_7_site-packages_django_template_defaulttags'
p1011
(dp1012
g6
(dp1013
g8
S'_var_www_python_ci_adptv_lib_python2_7_site-packages_django_template_defaulttags.html'
p1014
sg10
S'/var/www/python_ci/adptv/lib/python2.7/site-packages/django/template/defaulttags'
p1015
sg12
g13
(g14
g15
NtRp1016
(dp1017
g18
I1
sg19
I0
sg20
I623
sg21
I0
sg22
I0
sg23
I500
sg24
I0
sbssg25
S'\xe0*\xad\xa3\xe5\xc7\xe1\xadP\xa1\x06@\x16\xbb.\x83'
p1018
ssS'_var_www_python_ci_adptv_lib_python2_7_site-packages_pytz_tzfile'
p1019
(dp1020
g6
(dp1021
g8
S'_var_www_python_ci_adptv_lib_python2_7_site-packages_pytz_tzfile.html'
p1022
sg10
S'/var/www/python_ci/adptv/lib/python2.7/site-packages/pytz/tzfile'
p1023
sg12
g13
(g14
g15
NtRp1024
(dp1025
g18
I1
sg19
I0
sg20
I81
sg21
I0
sg22
I0
sg23
I68
sg24
I0
sbssg25
S'\x14UT\xb7&\xeb\xa8w\xf7\xbd\xf6\xb0v%\x8b`'
p1026
ssS'_var_www_python_ci_adptv_lib_python2_7_site-packages_nose_plugins_debug'
p1027
(dp1028
g6
(dp1029
g8
S'_var_www_python_ci_adptv_lib_python2_7_site-packages_nose_plugins_debug.html'
p1030
sg10
S'/var/www/python_ci/adptv/lib/python2.7/site-packages/nose/plugins/debug'
p1031
sg12
g13
(g14
g15
NtRp1032
(dp1033
g18
I1
sg19
I0
sg20
I31
sg21
I0
sg22
I0
sg23
I13
sg24
I0
sbssg25
S'\x1c}\xd8#\xbf\xf9\x0b\x7f\xba\xcb\xd5\xd3\xfa\xb2\xd9X'
p1034
ssS'_var_www_python_ci_adptv_lib_python2_7_site-packages_django_nose_management_commands___init__'
p1035
(dp1036
g6
(dp1037
g8
S'_var_www_python_ci_adptv_lib_python2_7_site-packages_django_nose_management_commands___init__.html'
p1038
sg10
S'/var/www/python_ci/adptv/lib/python2.7/site-packages/django_nose/management/commands/__init__'
p1039
sg12
g13
(g14
g15
NtRp1040
(dp1041
g18
I1
sg19
I0
sg20
I0
sg21
I0
sg22
I0
sg23
I0
sg24
I0
sbssg25
S'\xca\xf5\x9f\x7f\x88\xdfa\x831|T\x1d\xbc}\xa5v'
p1042
ssS'_var_www_python_ci_adptv_lib_python2_7_site-packages_django_jenkins___init__'
p1043
(dp1044
g6
(dp1045
g8
S'_var_www_python_ci_adptv_lib_python2_7_site-packages_django_jenkins___init__.html'
p1046
sg10
S'/var/www/python_ci/adptv/lib/python2.7/site-packages/django_jenkins/__init__'
p1047
sg12
g13
(g14
g15
NtRp1048
(dp1049
g18
I1
sg19
I0
sg20
I1
sg21
I0
sg22
I0
sg23
I0
sg24
I0
sbssg25
S'\xe47\x86z\xe2;\xe5\xd4+\x9f\x9fu\x14\x07\x96U'
p1050
ssS'_var_www_python_ci_adptv_lib_python2_7_site-packages_unittest2_signals'
p1051
(dp1052
g6
(dp1053
g8
S'_var_www_python_ci_adptv_lib_python2_7_site-packages_unittest2_signals.html'
p1054
sg10
S'/var/www/python_ci/adptv/lib/python2.7/site-packages/unittest2/signals'
p1055
sg12
g13
(g14
g15
NtRp1056
(dp1057
g18
I1
sg19
I0
sg20
I39
sg21
I0
sg22
I0
sg23
I17
sg24
I0
sbssg25
S'Z\xbf\xf7\x9e\xfbKWA\xd1\xc5\xa4\xf0\x96L\x7f\x1c'
p1058
ssS'_var_www_python_ci_adptv_lib_python2_7_site-packages_django_core_files_storage'
p1059
(dp1060
g6
(dp1061
g8
S'_var_www_python_ci_adptv_lib_python2_7_site-packages_django_core_files_storage.html'
p1062
sg10
S'/var/www/python_ci/adptv/lib/python2.7/site-packages/django/core/files/storage'
p1063
sg12
g13
(g14
g15
NtRp1064
(dp1065
g18
I1
sg19
I0
sg20
I146
sg21
I0
sg22
I0
sg23
I100
sg24
I0
sbssg25
S'`e7\xff\x82\xaf\xd0\x0c\x98\xe1p\xaf[\xbd*\x14'
p1066
ssS'_var_www_python_ci_adptv_lib_python2_7_site-packages_django_forms___init__'
p1067
(dp1068
g6
(dp1069
g8
S'_var_www_python_ci_adptv_lib_python2_7_site-packages_django_forms___init__.html'
p1070
sg10
S'/var/www/python_ci/adptv/lib/python2.7/site-packages/django/forms/__init__'
p1071
sg12
g13
(g14
g15
NtRp1072
(dp1073
g18
I1
sg19
I0
sg20
I6
sg21
I0
sg22
I0
sg23
I0
sg24
I0
sbssg25
S'\x88c<\x81\x87\x93\x07\xbe\n\x04\x10Lng\xe5\x95'
p1074
ssS'_var_www_python_ci_adptv_lib_python2_7_site-packages_nose_failure'
p1075
(dp1076
g6
(dp1077
g8
S'_var_www_python_ci_adptv_lib_python2_7_site-packages_nose_failure.html'
p1078
sg10
S'/var/www/python_ci/adptv/lib/python2.7/site-packages/nose/failure'
p1079
sg12
g13
(g14
g15
NtRp1080
(dp1081
g18
I1
sg19
I0
sg20
I25
sg21
I0
sg22
I0
sg23
I13
sg24
I0
sbssg25
S';{HI\xf8e\xa1\n\x12xl\x8c\x1f)\x84*'
p1082
ssS'frontend_utils_test_utils'
p1083
(dp1084
g6
(dp1085
g8
S'frontend_utils_test_utils.html'
p1086
sg10
S'frontend_utils/test_utils'
p1087
sg12
g13
(g14
g15
NtRp1088
(dp1089
g18
I1
sg19
I0
sg20
I6
sg21
I0
sg22
I0
sg23
I0
sg24
I0
sbssg25
S'\x97J\xad\xa9\xba\x95\xd7\xea\xd1\xa1\xa5y5\xbf\xdc\xf5'
p1090
ssS'manage'
p1091
(dp1092
g6
(dp1093
g8
S'manage.html'
p1094
sg10
g1091
sg12
g13
(g14
g15
NtRp1095
(dp1096
g18
I1
sg19
I0
sg20
I7
sg21
I0
sg22
I0
sg23
I0
sg24
I0
sbssg25
S'\x16\x19\x01\x1dk\xab\xa0\xbdpM\x00\xb4\x9f,\xaf\xe4'
p1097
ssS'_var_www_python_ci_adptv_lib_python2_7_site-packages_django_utils_dateformat'
p1098
(dp1099
g6
(dp1100
g8
S'_var_www_python_ci_adptv_lib_python2_7_site-packages_django_utils_dateformat.html'
p1101
sg10
S'/var/www/python_ci/adptv/lib/python2.7/site-packages/django/utils/dateformat'
p1102
sg12
g13
(g14
g15
NtRp1103
(dp1104
g18
I1
sg19
I0
sg20
I181
sg21
I0
sg22
I0
sg23
I119
sg24
I0
sbssg25
S'\xf2\xe4\xae\x83\xc8uL]\xa9;@\xf9-\x1e\x9b\xeb'
p1105
ssS'_var_www_python_ci_adptv_lib_python2_7_site-packages_django_core_cache_backends___init__'
p1106
(dp1107
g6
(dp1108
g8
S'_var_www_python_ci_adptv_lib_python2_7_site-packages_django_core_cache_backends___init__.html'
p1109
sg10
S'/var/www/python_ci/adptv/lib/python2.7/site-packages/django/core/cache/backends/__init__'
p1110
sg12
g13
(g14
g15
NtRp1111
(dp1112
g18
I1
sg19
I0
sg20
I0
sg21
I0
sg22
I0
sg23
I0
sg24
I0
sbssg25
S'\xca\xf5\x9f\x7f\x88\xdfa\x831|T\x1d\xbc}\xa5v'
p1113
ssS'_var_www_python_ci_adptv_lib_python2_7_site-packages_django_core_cache_backends_locmem'
p1114
(dp1115
g6
(dp1116
g8
S'_var_www_python_ci_adptv_lib_python2_7_site-packages_django_core_cache_backends_locmem.html'
p1117
sg10
S'/var/www/python_ci/adptv/lib/python2.7/site-packages/django/core/cache/backends/locmem'
p1118
sg12
g13
(g14
g15
NtRp1119
(dp1120
g18
I1
sg19
I0
sg20
I118
sg21
I0
sg22
I0
sg23
I92
sg24
I0
sbssg25
S'\x10\xd8\x84L\xcf\xf7~\xb6s\xd6P@cB\xab1'
p1121
ssS'_var_www_python_ci_adptv_lib_python2_7_site-packages_django_utils_version'
p1122
(dp1123
g6
(dp1124
g8
S'_var_www_python_ci_adptv_lib_python2_7_site-packages_django_utils_version.html'
p1125
sg10
S'/var/www/python_ci/adptv/lib/python2.7/site-packages/django/utils/version'
p1126
sg12
g13
(g14
g15
NtRp1127
(dp1128
g18
I1
sg19
I0
sg20
I29
sg21
I0
sg22
I0
sg23
I15
sg24
I0
sbssg25
S'(\xf2@\x12{\x98\xeb\xf0L\x9ct\xec\x05Ap('
p1129
ssS'_var_www_python_ci_adptv_lib_python2_7_site-packages_pytz_tzinfo'
p1130
(dp1131
g6
(dp1132
g8
S'_var_www_python_ci_adptv_lib_python2_7_site-packages_pytz_tzinfo.html'
p1133
sg10
S'/var/www/python_ci/adptv/lib/python2.7/site-packages/pytz/tzinfo'
p1134
sg12
g13
(g14
g15
NtRp1135
(dp1136
g18
I1
sg19
I0
sg20
I178
sg21
I0
sg22
I0
sg23
I126
sg24
I0
sbssg25
S"\x97my\x84\xf1\x0b'\xaag\xdb\x91q\xc3\x9e@\xbd"
p1137
ssS'_var_www_python_ci_adptv_lib_python2_7_site-packages_django_core_handlers_wsgi'
p1138
(dp1139
g6
(dp1140
g8
S'_var_www_python_ci_adptv_lib_python2_7_site-packages_django_core_handlers_wsgi.html'
p1141
sg10
S'/var/www/python_ci/adptv/lib/python2.7/site-packages/django/core/handlers/wsgi'
p1142
sg12
g13
(g14
g15
NtRp1143
(dp1144
g18
I1
sg19
I0
sg20
I154
sg21
I0
sg22
I0
sg23
I113
sg24
I0
sbssg25
S'\x98\x8d\xdf\xf7\x0c\xebX\xe4\xf5\x96\xdb!\xc7\xfc\x01a'
p1145
ssS'nodes___init__'
p1146
(dp1147
g6
(dp1148
g8
S'nodes___init__.html'
p1149
sg10
S'nodes/__init__'
p1150
sg12
g13
(g14
g15
NtRp1151
(dp1152
g18
I1
sg19
I0
sg20
I0
sg21
I0
sg22
I0
sg23
I0
sg24
I0
sbssg25
S'\xca\xf5\x9f\x7f\x88\xdfa\x831|T\x1d\xbc}\xa5v'
p1153
ssS'_var_www_python_ci_adptv_lib_python2_7_site-packages_django_contrib_contenttypes___init__'
p1154
(dp1155
g6
(dp1156
g8
S'_var_www_python_ci_adptv_lib_python2_7_site-packages_django_contrib_contenttypes___init__.html'
p1157
sg10
S'/var/www/python_ci/adptv/lib/python2.7/site-packages/django/contrib/contenttypes/__init__'
p1158
sg12
g13
(g14
g15
NtRp1159
(dp1160
g18
I1
sg19
I0
sg20
I0
sg21
I0
sg22
I0
sg23
I0
sg24
I0
sbssg25
S'\xca\xf5\x9f\x7f\x88\xdfa\x831|T\x1d\xbc}\xa5v'
p1161
ssS'_var_www_python_ci_adptv_lib_python2_7_site-packages_django_utils_functional'
p1162
(dp1163
g6
(dp1164
g8
S'_var_www_python_ci_adptv_lib_python2_7_site-packages_django_utils_functional.html'
p1165
sg10
S'/var/www/python_ci/adptv/lib/python2.7/site-packages/django/utils/functional'
p1166
sg12
g13
(g14
g15
NtRp1167
(dp1168
g18
I1
sg19
I0
sg20
I222
sg21
I0
sg22
I0
sg23
I112
sg24
I0
sbssg25
S's\xdfE\x01$3x\xebN\xdf_u!^\x1d\xc7'
p1169
ssS'_var_www_python_ci_adptv_lib_python2_7_site-packages_django_utils_six'
p1170
(dp1171
g6
(dp1172
g8
S'_var_www_python_ci_adptv_lib_python2_7_site-packages_django_utils_six.html'
p1173
sg10
S'/var/www/python_ci/adptv/lib/python2.7/site-packages/django/utils/six'
p1174
sg12
g13
(g14
g15
NtRp1175
(dp1176
g18
I1
sg19
I0
sg20
I311
sg21
I0
sg22
I0
sg23
I138
sg24
I0
sbssg25
S'\x89\r\x9b\x14\x96N\xd1\xdb\xd5\xdd\xf4/\xf1\x1d\x92\xda'
p1177
ssS'_var_www_python_ci_adptv_lib_python2_7_site-packages_django_views___init__'
p1178
(dp1179
g6
(dp1180
g8
S'_var_www_python_ci_adptv_lib_python2_7_site-packages_django_views___init__.html'
p1181
sg10
S'/var/www/python_ci/adptv/lib/python2.7/site-packages/django/views/__init__'
p1182
sg12
g13
(g14
g15
NtRp1183
(dp1184
g18
I1
sg19
I0
sg20
I0
sg21
I0
sg22
I0
sg23
I0
sg24
I0
sbssg25
S'\xca\xf5\x9f\x7f\x88\xdfa\x831|T\x1d\xbc}\xa5v'
p1185
ssS'_var_www_python_ci_adptv_lib_python2_7_site-packages_django_dispatch___init__'
p1186
(dp1187
g6
(dp1188
g8
S'_var_www_python_ci_adptv_lib_python2_7_site-packages_django_dispatch___init__.html'
p1189
sg10
S'/var/www/python_ci/adptv/lib/python2.7/site-packages/django/dispatch/__init__'
p1190
sg12
g13
(g14
g15
NtRp1191
(dp1192
g18
I1
sg19
I0
sg20
I1
sg21
I0
sg22
I0
sg23
I0
sg24
I0
sbssg25
S'\x0c\x08\x7f\xbb\x1cX\xc3a\xeb(\xac\xfd\x85h<\x9f'
p1193
ssS'_var_www_python_ci_adptv_lib_python2_7_site-packages_django_contrib_auth___init__'
p1194
(dp1195
g6
(dp1196
g8
S'_var_www_python_ci_adptv_lib_python2_7_site-packages_django_contrib_auth___init__.html'
p1197
sg10
S'/var/www/python_ci/adptv/lib/python2.7/site-packages/django/contrib/auth/__init__'
p1198
sg12
g13
(g14
g15
NtRp1199
(dp1200
g18
I1
sg19
I0
sg20
I83
sg21
I0
sg22
I0
sg23
I65
sg24
I0
sbssg25
S'\xbf=J\xf3\xbc!,*O\x10?\x92\xfe:RI'
p1201
ssS'_var_www_python_ci_adptv_lib_python2_7_site-packages_django_utils_crypto'
p1202
(dp1203
g6
(dp1204
g8
S'_var_www_python_ci_adptv_lib_python2_7_site-packages_django_utils_crypto.html'
p1205
sg10
S'/var/www/python_ci/adptv/lib/python2.7/site-packages/django/utils/crypto'
p1206
sg12
g13
(g14
g15
NtRp1207
(dp1208
g18
I1
sg19
I0
sg20
I75
sg21
I0
sg22
I0
sg23
I53
sg24
I0
sbssg25
S'\x94\xee\xcc\xf7\xb7\xbc\xb2e\xa7*\xda+pYj\xb5'
p1209
ssS'_var_www_python_ci_adptv_lib_python2_7_site-packages_django_utils_deprecation'
p1210
(dp1211
g6
(dp1212
g8
S'_var_www_python_ci_adptv_lib_python2_7_site-packages_django_utils_deprecation.html'
p1213
sg10
S'/var/www/python_ci/adptv/lib/python2.7/site-packages/django/utils/deprecation'
p1214
sg12
g13
(g14
g15
NtRp1215
(dp1216
g18
I1
sg19
I0
sg20
I33
sg21
I0
sg22
I0
sg23
I5
sg24
I0
sbssg25
S'\xeb\x85\x18\x9f2\xed\x0bV\xb3\xe0\xad\xf8\x03B\x94\xb1'
p1217
ssS'_var_www_python_ci_adptv_lib_python2_7_site-packages_django_forms_models'
p1218
(dp1219
g6
(dp1220
g8
S'_var_www_python_ci_adptv_lib_python2_7_site-packages_django_forms_models.html'
p1221
sg10
S'/var/www/python_ci/adptv/lib/python2.7/site-packages/django/forms/models'
p1222
sg12
g13
(g14
g15
NtRp1223
(dp1224
g18
I1
sg19
I0
sg20
I645
sg21
I0
sg22
I0
sg23
I537
sg24
I0
sbssg25
S'Q\xf63\nc25\t\x10u\x9fn\xea\xe2\xd9\x0e'
p1225
ssS'login___init__'
p1226
(dp1227
g6
(dp1228
g8
S'login___init__.html'
p1229
sg10
S'login/__init__'
p1230
sg12
g13
(g14
g15
NtRp1231
(dp1232
g18
I1
sg19
I0
sg20
I0
sg21
I0
sg22
I0
sg23
I0
sg24
I0
sbssg25
S'\xca\xf5\x9f\x7f\x88\xdfa\x831|T\x1d\xbc}\xa5v'
p1233
ssS'_var_www_python_ci_adptv_lib_python2_7_site-packages_django_core_serializers_base'
p1234
(dp1235
g6
(dp1236
g8
S'_var_www_python_ci_adptv_lib_python2_7_site-packages_django_core_serializers_base.html'
p1237
sg10
S'/var/www/python_ci/adptv/lib/python2.7/site-packages/django/core/serializers/base'
p1238
sg12
g13
(g14
g15
NtRp1239
(dp1240
g18
I1
sg19
I0
sg20
I76
sg21
I0
sg22
I0
sg23
I49
sg24
I0
sbssg25
S'\x84CF\xb2\xa8\x0et\x81]\x8c+\x81* X\x08'
p1241
ssS'_var_www_python_ci_adptv_lib_python2_7_site-packages_django_db_backends_util'
p1242
(dp1243
g6
(dp1244
g8
S'_var_www_python_ci_adptv_lib_python2_7_site-packages_django_db_backends_util.html'
p1245
sg10
S'/var/www/python_ci/adptv/lib/python2.7/site-packages/django/db/backends/util'
p1246
sg12
g13
(g14
g15
NtRp1247
(dp1248
g18
I1
sg19
I0
sg20
I110
sg21
I0
sg22
I0
sg23
I82
sg24
I0
sbssg25
S'\x18^\xa8\x95\x12\xd6U\x0fP4w\xfbd@\xd0;'
p1249
ssS'_var_www_python_ci_adptv_lib_python2_7_site-packages_django_db_models_aggregates'
p1250
(dp1251
g6
(dp1252
g8
S'_var_www_python_ci_adptv_lib_python2_7_site-packages_django_db_models_aggregates.html'
p1253
sg10
S'/var/www/python_ci/adptv/lib/python2.7/site-packages/django/db/models/aggregates'
p1254
sg12
g13
(g14
g15
NtRp1255
(dp1256
g18
I1
sg19
I0
sg20
I31
sg21
I0
sg22
I0
sg23
I10
sg24
I0
sbssg25
S'\xcel\x03I\xf9\x82\xd1\xb8\x86}K\xa1;\x92\x0e\x05'
p1257
ssS'_var_www_python_ci_adptv_lib_python2_7_site-packages_nose_plugins_logcapture'
p1258
(dp1259
g6
(dp1260
g8
S'_var_www_python_ci_adptv_lib_python2_7_site-packages_nose_plugins_logcapture.html'
p1261
sg10
S'/var/www/python_ci/adptv/lib/python2.7/site-packages/nose/plugins/logcapture'
p1262
sg12
g13
(g14
g15
NtRp1263
(dp1264
g18
I1
sg19
I0
sg20
I126
sg21
I0
sg22
I0
sg23
I47
sg24
I0
sbssg25
S'q\xb3\xde\xd3\xfaX\xd2\x94j\xd72\x96\xa6\x14*\xa2'
p1265
ssS'_var_www_python_ci_adptv_lib_python2_7_site-packages_django_test_simple'
p1266
(dp1267
g6
(dp1268
g8
S'_var_www_python_ci_adptv_lib_python2_7_site-packages_django_test_simple.html'
p1269
sg10
S'/var/www/python_ci/adptv/lib/python2.7/site-packages/django/test/simple'
p1270
sg12
g13
(g14
g15
NtRp1271
(dp1272
g18
I1
sg19
I0
sg20
I126
sg21
I0
sg22
I0
sg23
I95
sg24
I0
sbssg25
S'p^\n\xf2\x1c\xc4\xfb\x98k\xf6\xbe\x13HRo~'
p1273
ssS'_var_www_python_ci_adptv_lib_python2_7_site-packages_django_core_handlers_base'
p1274
(dp1275
g6
(dp1276
g8
S'_var_www_python_ci_adptv_lib_python2_7_site-packages_django_core_handlers_base.html'
p1277
sg10
S'/var/www/python_ci/adptv/lib/python2.7/site-packages/django/core/handlers/base'
p1278
sg12
g13
(g14
g15
NtRp1279
(dp1280
g18
I1
sg19
I0
sg20
I159
sg21
I0
sg22
I0
sg23
I134
sg24
I0
sbssg25
S"'\xec\xbeja\x88\x1c\xd5\x00\xb0\xbf\xd5\x9d\x86\xce\xe6"
p1281
ssS'_var_www_python_ci_adptv_lib_python2_7_site-packages_django_utils_dates'
p1282
(dp1283
g6
(dp1284
g8
S'_var_www_python_ci_adptv_lib_python2_7_site-packages_django_utils_dates.html'
p1285
sg10
S'/var/www/python_ci/adptv/lib/python2.7/site-packages/django/utils/dates'
p1286
sg12
g13
(g14
g15
NtRp1287
(dp1288
g18
I1
sg19
I0
sg20
I9
sg21
I0
sg22
I0
sg23
I0
sg24
I0
sbssg25
S'\xaa\xd0\xb6\xf0{\x0b\xfe\xc2\xe5J\xa1\xe1"\xf7\xc28'
p1289
ssS'_var_www_python_ci_adptv_lib_python2_7_site-packages_django_contrib_sites___init__'
p1290
(dp1291
g6
(dp1292
g8
S'_var_www_python_ci_adptv_lib_python2_7_site-packages_django_contrib_sites___init__.html'
p1293
sg10
S'/var/www/python_ci/adptv/lib/python2.7/site-packages/django/contrib/sites/__init__'
p1294
sg12
g13
(g14
g15
NtRp1295
(dp1296
g18
I1
sg19
I0
sg20
I0
sg21
I0
sg22
I0
sg23
I0
sg24
I0
sbssg25
S'\xca\xf5\x9f\x7f\x88\xdfa\x831|T\x1d\xbc}\xa5v'
p1297
ssS'api_configuration___init__'
p1298
(dp1299
g6
(dp1300
g8
S'api_configuration___init__.html'
p1301
sg10
S'api/configuration/__init__'
p1302
sg12
g13
(g14
g15
NtRp1303
(dp1304
g18
I1
sg19
I0
sg20
I0
sg21
I0
sg22
I0
sg23
I0
sg24
I0
sbssg25
S'\xca\xf5\x9f\x7f\x88\xdfa\x831|T\x1d\xbc}\xa5v'
p1305
ssS'_var_www_python_ci_adptv_lib_python2_7_site-packages_pytz_lazy'
p1306
(dp1307
g6
(dp1308
g8
S'_var_www_python_ci_adptv_lib_python2_7_site-packages_pytz_lazy.html'
p1309
sg10
S'/var/www/python_ci/adptv/lib/python2.7/site-packages/pytz/lazy'
p1310
sg12
g13
(g14
g15
NtRp1311
(dp1312
g18
I1
sg19
I0
sg20
I97
sg21
I0
sg22
I0
sg23
I56
sg24
I0
sbssg25
S'\xd6\x01"\xe1\xad!df\x19\x0f-\xf2\x86\x91+\xb4'
p1313
ssS'_var_www_python_ci_adptv_lib_python2_7_site-packages_django_test__doctest'
p1314
(dp1315
g6
(dp1316
g8
S'_var_www_python_ci_adptv_lib_python2_7_site-packages_django_test__doctest.html'
p1317
sg10
S'/var/www/python_ci/adptv/lib/python2.7/site-packages/django/test/_doctest'
p1318
sg12
g13
(g14
g15
NtRp1319
(dp1320
g18
I1
sg19
I0
sg20
I946
sg21
I0
sg22
I0
sg23
I793
sg24
I0
sbssg25
S'\xe8L0\xf2\x9dE{6O\x92S\xc1Ax\x96\xd6'
p1321
ssS'_var_www_python_ci_adptv_lib_python2_7_site-packages_django_forms_util'
p1322
(dp1323
g6
(dp1324
g8
S'_var_www_python_ci_adptv_lib_python2_7_site-packages_django_forms_util.html'
p1325
sg10
S'/var/www/python_ci/adptv/lib/python2.7/site-packages/django/forms/util'
p1326
sg12
g13
(g14
g15
NtRp1327
(dp1328
g18
I1
sg19
I0
sg20
I47
sg21
I0
sg22
I0
sg23
I24
sg24
I0
sbssg25
S'u~T\xed\xff\xdf\x10\xea\x0b\xc8\x97^y\x03)\x03'
p1329
ssS'_var_www_python_ci_adptv_lib_python2_7_site-packages_django_nose_management_commands_test'
p1330
(dp1331
g6
(dp1332
g8
S'_var_www_python_ci_adptv_lib_python2_7_site-packages_django_nose_management_commands_test.html'
p1333
sg10
S'/var/www/python_ci/adptv/lib/python2.7/site-packages/django_nose/management/commands/test'
p1334
sg12
g13
(g14
g15
NtRp1335
(dp1336
g18
I1
sg19
I0
sg20
I15
sg21
I0
sg22
I0
sg23
I4
sg24
I0
sbssg25
S'\xd5\x94o\xe0\x15\x98\xddYr\xcc7Y\xc9N\xac\xc6'
p1337
ssS'_var_www_python_ci_adptv_lib_python2_7_site-packages_django_core_management_commands_flush'
p1338
(dp1339
g6
(dp1340
g8
S'_var_www_python_ci_adptv_lib_python2_7_site-packages_django_core_management_commands_flush.html'
p1341
sg10
S'/var/www/python_ci/adptv/lib/python2.7/site-packages/django/core/management/commands/flush'
p1342
sg12
g13
(g14
g15
NtRp1343
(dp1344
g18
I1
sg19
I0
sg20
I51
sg21
I0
sg22
I0
sg23
I35
sg24
I0
sbssg25
S'\xaf6\x103\x06\xef\t\xd4\xa4Z\x9d\x84\x02\xcf5O'
p1345
ssS'_var_www_python_ci_adptv_lib_python2_7_site-packages_nose_tools_nontrivial'
p1346
(dp1347
g6
(dp1348
g8
S'_var_www_python_ci_adptv_lib_python2_7_site-packages_nose_tools_nontrivial.html'
p1349
sg10
S'/var/www/python_ci/adptv/lib/python2.7/site-packages/nose/tools/nontrivial'
p1350
sg12
g13
(g14
g15
NtRp1351
(dp1352
g18
I1
sg19
I0
sg20
I80
sg21
I0
sg22
I0
sg23
I69
sg24
I0
sbssg25
S'\xd3\x9a\x1e37\xfc\x13r\xcaY\xb2\xf5\tf\x1bf'
p1353
ssS'_var_www_python_ci_adptv_lib_python2_7_site-packages_django_forms_widgets'
p1354
(dp1355
g6
(dp1356
g8
S'_var_www_python_ci_adptv_lib_python2_7_site-packages_django_forms_widgets.html'
p1357
sg10
S'/var/www/python_ci/adptv/lib/python2.7/site-packages/django/forms/widgets'
p1358
sg12
g13
(g14
g15
NtRp1359
(dp1360
g18
I1
sg19
I0
sg20
I522
sg21
I0
sg22
I0
sg23
I338
sg24
I0
sbssg25
S'\x08\x96\xdb\x97a6\xd6\xf1\x05\xfb\xe7vz\xbe\xa4\x0c'
p1361
ssS'_var_www_python_ci_adptv_lib_python2_7_site-packages_django_contrib_sessions___init__'
p1362
(dp1363
g6
(dp1364
g8
S'_var_www_python_ci_adptv_lib_python2_7_site-packages_django_contrib_sessions___init__.html'
p1365
sg10
S'/var/www/python_ci/adptv/lib/python2.7/site-packages/django/contrib/sessions/__init__'
p1366
sg12
g13
(g14
g15
NtRp1367
(dp1368
g18
I1
sg19
I0
sg20
I0
sg21
I0
sg22
I0
sg23
I0
sg24
I0
sbssg25
S'\xca\xf5\x9f\x7f\x88\xdfa\x831|T\x1d\xbc}\xa5v'
p1369
ssS'api_tests'
p1370
(dp1371
g6
(dp1372
g8
S'api_tests.html'
p1373
sg10
S'api/tests'
p1374
sg12
g13
(g14
g15
NtRp1375
(dp1376
g18
I1
sg19
I0
sg20
I2
sg21
I0
sg22
I0
sg23
I0
sg24
I0
sbssg25
S'\xe1lh\xa5M\xf5\x07}"\xc2\xd9\x86W`\xdf\xbb'
p1377
ssS'_var_www_python_ci_adptv_lib_python2_7_site-packages_nose_plugins_isolate'
p1378
(dp1379
g6
(dp1380
g8
S'_var_www_python_ci_adptv_lib_python2_7_site-packages_nose_plugins_isolate.html'
p1381
sg10
S'/var/www/python_ci/adptv/lib/python2.7/site-packages/nose/plugins/isolate'
p1382
sg12
g13
(g14
g15
NtRp1383
(dp1384
g18
I1
sg19
I0
sg20
I34
sg21
I0
sg22
I0
sg23
I20
sg24
I0
sbssg25
S'\xe1#!\x86\xf1\xcc\xdf\x1f<(S)Ehk\xbe'
p1385
ssS'_var_www_python_ci_adptv_lib_python2_7_site-packages_django_db_models_fields_proxy'
p1386
(dp1387
g6
(dp1388
g8
S'_var_www_python_ci_adptv_lib_python2_7_site-packages_django_db_models_fields_proxy.html'
p1389
sg10
S'/var/www/python_ci/adptv/lib/python2.7/site-packages/django/db/models/fields/proxy'
p1390
sg12
g13
(g14
g15
NtRp1391
(dp1392
g18
I1
sg19
I0
sg20
I6
sg21
I0
sg22
I0
sg23
I3
sg24
I0
sbssg25
S'V\x13\xa3\x82& \x8au\xa8\xde\xd3\x84\xd0B\xc1\x80'
p1393
ssS'_var_www_python_ci_adptv_lib_python2_7_site-packages_nose_plugins_xunit'
p1394
(dp1395
g6
(dp1396
g8
S'_var_www_python_ci_adptv_lib_python2_7_site-packages_nose_plugins_xunit.html'
p1397
sg10
S'/var/www/python_ci/adptv/lib/python2.7/site-packages/nose/plugins/xunit'
p1398
sg12
g13
(g14
g15
NtRp1399
(dp1400
g18
I1
sg19
I0
sg20
I161
sg21
I0
sg22
I0
sg23
I103
sg24
I0
sbssg25
S'\x1e\x01\r<\x9eT\xdf\xe8\x89\xc2\xaa\x1f\x8e\x8dH\x89'
p1401
ssS'_var_www_python_ci_adptv_lib_python2_7_site-packages_unittest2_util'
p1402
(dp1403
g6
(dp1404
g8
S'_var_www_python_ci_adptv_lib_python2_7_site-packages_unittest2_util.html'
p1405
sg10
S'/var/www/python_ci/adptv/lib/python2.7/site-packages/unittest2/util'
p1406
sg12
g13
(g14
g15
NtRp1407
(dp1408
g18
I1
sg19
I0
sg20
I74
sg21
I0
sg22
I0
sg23
I67
sg24
I0
sbssg25
S')\xb0\xd3\xe9\xb4\x86\xbf\x1f\xaaI\xefA\xbf\x9a\xd3\x99'
p1409
ssS'_var_www_python_ci_adptv_lib_python2_7_site-packages_nose_exc'
p1410
(dp1411
g6
(dp1412
g8
S'_var_www_python_ci_adptv_lib_python2_7_site-packages_nose_exc.html'
p1413
sg10
S'/var/www/python_ci/adptv/lib/python2.7/site-packages/nose/exc'
p1414
sg12
g13
(g14
g15
NtRp1415
(dp1416
g18
I1
sg19
I0
sg20
I2
sg21
I0
sg22
I0
sg23
I0
sg24
I0
sbssg25
S'\xd6\x98\xd8\nx2\nEK]\xfa\x0bJ\x95\xe0\xc3'
p1417
ssS'_var_www_python_ci_adptv_lib_python2_7_site-packages_nose_plugins_skip'
p1418
(dp1419
g6
(dp1420
g8
S'_var_www_python_ci_adptv_lib_python2_7_site-packages_nose_plugins_skip.html'
p1421
sg10
S'/var/www/python_ci/adptv/lib/python2.7/site-packages/nose/plugins/skip'
p1422
sg12
g13
(g14
g15
NtRp1423
(dp1424
g18
I1
sg19
I0
sg20
I22
sg21
I0
sg22
I0
sg23
I8
sg24
I0
sbssg25
S'\xc96\x89\x16\xc4\xc7\x1f\x05f\x82\x03Z\xe8\xa7\x0e\x8a'
p1425
ssS'jobs_tests'
p1426
(dp1427
g6
(dp1428
g8
S'jobs_tests.html'
p1429
sg10
S'jobs/tests'
p1430
sg12
g13
(g14
g15
NtRp1431
(dp1432
g18
I1
sg19
I0
sg20
I2
sg21
I0
sg22
I0
sg23
I0
sg24
I0
sbssg25
S'\x0c}\x95\xfd8\x14\x166\xee\x16\x06A^G#\x99'
p1433
ssS'_var_www_python_ci_adptv_lib_python2_7_site-packages_nose_tools_trivial'
p1434
(dp1435
g6
(dp1436
g8
S'_var_www_python_ci_adptv_lib_python2_7_site-packages_nose_tools_trivial.html'
p1437
sg10
S'/var/www/python_ci/adptv/lib/python2.7/site-packages/nose/tools/trivial'
p1438
sg12
g13
(g14
g15
NtRp1439
(dp1440
g18
I1
sg19
I0
sg20
I24
sg21
I0
sg22
I0
sg23
I5
sg24
I0
sbssg25
S'sgQb\xca\xdf\xc2\x84\x10x9\xbca15='
p1441
ssS'_var_www_python_ci_adptv_lib_python2_7_site-packages_django_test_client'
p1442
(dp1443
g6
(dp1444
g8
S'_var_www_python_ci_adptv_lib_python2_7_site-packages_django_test_client.html'
p1445
sg10
S'/var/www/python_ci/adptv/lib/python2.7/site-packages/django/test/client'
p1446
sg12
g13
(g14
g15
NtRp1447
(dp1448
g18
I1
sg19
I0
sg20
I300
sg21
I0
sg22
I0
sg23
I230
sg24
I0
sbssg25
S'\x13V*\xc9\xb8\xd6\xfe\xdb\xf9\xfc+&\x17\xd2\x06\x9e'
p1449
ssS'_var_www_python_ci_adptv_lib_python2_7_site-packages_django_template_loader_tags'
p1450
(dp1451
g6
(dp1452
g8
S'_var_www_python_ci_adptv_lib_python2_7_site-packages_django_template_loader_tags.html'
p1453
sg10
S'/var/www/python_ci/adptv/lib/python2.7/site-packages/django/template/loader_tags'
p1454
sg12
g13
(g14
g15
NtRp1455
(dp1456
g18
I1
sg19
I0
sg20
I177
sg21
I0
sg22
I0
sg23
I138
sg24
I0
sbssg25
S'\x1a\x10\xde\xe8\xcdbf\\u\xd0R\xb4\xc0\x82\x0b3'
p1457
ssS'_var_www_python_ci_adptv_lib_python2_7_site-packages_django_http___init__'
p1458
(dp1459
g6
(dp1460
g8
S'_var_www_python_ci_adptv_lib_python2_7_site-packages_django_http___init__.html'
p1461
sg10
S'/var/www/python_ci/adptv/lib/python2.7/site-packages/django/http/__init__'
p1462
sg12
g13
(g14
g15
NtRp1463
(dp1464
g18
I1
sg19
I0
sg20
I4
sg21
I0
sg22
I0
sg23
I0
sg24
I0
sbssg25
S'\xcb\xb2\xa7\x92\x99\x0eH\x82@\xf7\xc5\xef\xf2\xd4l`'
p1465
ssS'api_login_api___init__'
p1466
(dp1467
g6
(dp1468
g8
S'api_login_api___init__.html'
p1469
sg10
S'api/login_api/__init__'
p1470
sg12
g13
(g14
g15
NtRp1471
(dp1472
g18
I1
sg19
I0
sg20
I0
sg21
I0
sg22
I0
sg23
I0
sg24
I0
sbssg25
S'\xca\xf5\x9f\x7f\x88\xdfa\x831|T\x1d\xbc}\xa5v'
p1473
ssS'_var_www_python_ci_adptv_lib_python2_7_site-packages_django_utils_importlib'
p1474
(dp1475
g6
(dp1476
g8
S'_var_www_python_ci_adptv_lib_python2_7_site-packages_django_utils_importlib.html'
p1477
sg10
S'/var/www/python_ci/adptv/lib/python2.7/site-packages/django/utils/importlib'
p1478
sg12
g13
(g14
g15
NtRp1479
(dp1480
g18
I1
sg19
I0
sg20
I26
sg21
I0
sg22
I0
sg23
I18
sg24
I0
sbssg25
S'!\xccm\xd8\xf7f\xf1.K\x10 \x86K\xd4\xdf\xe7'
p1481
ssS'_var_www_python_ci_adptv_lib_python2_7_site-packages_django_utils_synch'
p1482
(dp1483
g6
(dp1484
g8
S'_var_www_python_ci_adptv_lib_python2_7_site-packages_django_utils_synch.html'
p1485
sg10
S'/var/www/python_ci/adptv/lib/python2.7/site-packages/django/utils/synch'
p1486
sg12
g13
(g14
g15
NtRp1487
(dp1488
g18
I1
sg19
I0
sg20
I59
sg21
I0
sg22
I0
sg23
I41
sg24
I0
sbssg25
S'\x1d\x7f\x84\xd0\xf3\xbc\xb6\xf4\x9c\xa7\x06c\xf5A\xc70'
p1489
ssS'_var_www_python_ci_adptv_lib_python2_7_site-packages_django_db_models_sql_subqueries'
p1490
(dp1491
g6
(dp1492
g8
S'_var_www_python_ci_adptv_lib_python2_7_site-packages_django_db_models_sql_subqueries.html'
p1493
sg10
S'/var/www/python_ci/adptv/lib/python2.7/site-packages/django/db/models/sql/subqueries'
p1494
sg12
g13
(g14
g15
NtRp1495
(dp1496
g18
I1
sg19
I0
sg20
I152
sg21
I0
sg22
I0
sg23
I106
sg24
I0
sbssg25
S'^\xcc\xbez_\xf0#X\xeeL*d\x8b\xa1\x0c\xee'
p1497
ssS'_var_www_python_ci_adptv_lib_python2_7_site-packages_django_contrib_auth_signals'
p1498
(dp1499
g6
(dp1500
g8
S'_var_www_python_ci_adptv_lib_python2_7_site-packages_django_contrib_auth_signals.html'
p1501
sg10
S'/var/www/python_ci/adptv/lib/python2.7/site-packages/django/contrib/auth/signals'
p1502
sg12
g13
(g14
g15
NtRp1503
(dp1504
g18
I1
sg19
I0
sg20
I4
sg21
I0
sg22
I0
sg23
I0
sg24
I0
sbssg25
S'\x89\x9c\xaa;\xc3\xa0\x92\xe0\x14HX\x86\x17\\\xf6z'
p1505
ssS'_var_www_python_ci_adptv_lib_python2_7_site-packages_django_utils_tzinfo'
p1506
(dp1507
g6
(dp1508
g8
S'_var_www_python_ci_adptv_lib_python2_7_site-packages_django_utils_tzinfo.html'
p1509
sg10
S'/var/www/python_ci/adptv/lib/python2.7/site-packages/django/utils/tzinfo'
p1510
sg12
g13
(g14
g15
NtRp1511
(dp1512
g18
I1
sg19
I0
sg20
I54
sg21
I0
sg22
I0
sg23
I35
sg24
I0
sbssg25
S'\xd7\xc3\xe6\xb8\xeaF\xf3X\xd8Y\x1a\x17\xcc\xa6\x9d\xcc'
p1513
ssS'_var_www_python_ci_adptv_lib_python2_7_site-packages_django_dispatch_dispatcher'
p1514
(dp1515
g6
(dp1516
g8
S'_var_www_python_ci_adptv_lib_python2_7_site-packages_django_dispatch_dispatcher.html'
p1517
sg10
S'/var/www/python_ci/adptv/lib/python2.7/site-packages/django/dispatch/dispatcher'
p1518
sg12
g13
(g14
g15
NtRp1519
(dp1520
g18
I1
sg19
I0
sg20
I122
sg21
I0
sg22
I0
sg23
I78
sg24
I0
sbssg25
S'Qk\xb5iT\xc3\xb6z[p.\x92*\x80\xd9\xdb'
p1521
ssS'_var_www_python_ci_adptv_lib_python2_7_site-packages_nose_plugins_allmodules'
p1522
(dp1523
g6
(dp1524
g8
S'_var_www_python_ci_adptv_lib_python2_7_site-packages_nose_plugins_allmodules.html'
p1525
sg10
S'/var/www/python_ci/adptv/lib/python2.7/site-packages/nose/plugins/allmodules'
p1526
sg12
g13
(g14
g15
NtRp1527
(dp1528
g18
I1
sg19
I0
sg20
I11
sg21
I0
sg22
I0
sg23
I3
sg24
I0
sbssg25
S'\x1f\xb2]\xc8~\xd4\x10Kg\xd4\x8e\x90\x0fN\x98o'
p1529
ssS'_var_www_python_ci_adptv_lib_python2_7_site-packages_unittest2_suite'
p1530
(dp1531
g6
(dp1532
g8
S'_var_www_python_ci_adptv_lib_python2_7_site-packages_unittest2_suite.html'
p1533
sg10
S'/var/www/python_ci/adptv/lib/python2.7/site-packages/unittest2/suite'
p1534
sg12
g13
(g14
g15
NtRp1535
(dp1536
g18
I1
sg19
I0
sg20
I198
sg21
I0
sg22
I0
sg23
I156
sg24
I0
sbssg25
S'\xbbo\xf2\xbc\xaa+~\xfcx\xb88\xbf\xf0\xdc`\xf2'
p1537
ssS'_var_www_python_ci_adptv_lib_python2_7_site-packages_django_forms_forms'
p1538
(dp1539
g6
(dp1540
g8
S'_var_www_python_ci_adptv_lib_python2_7_site-packages_django_forms_forms.html'
p1541
sg10
S'/var/www/python_ci/adptv/lib/python2.7/site-packages/django/forms/forms'
p1542
sg12
g13
(g14
g15
NtRp1543
(dp1544
g18
I1
sg19
I0
sg20
I290
sg21
I0
sg22
I0
sg23
I210
sg24
I0
sbssg25
S'\xcc\xae\x96\xc4<e\xd1j\xca_\x87\x97\xff\xe0A\xb8'
p1545
ssS'_var_www_python_ci_adptv_lib_python2_7_site-packages_django_conf_global_settings'
p1546
(dp1547
g6
(dp1548
g8
S'_var_www_python_ci_adptv_lib_python2_7_site-packages_django_conf_global_settings.html'
p1549
sg10
S'/var/www/python_ci/adptv/lib/python2.7/site-packages/django/conf/global_settings'
p1550
sg12
g13
(g14
g15
NtRp1551
(dp1552
g18
I1
sg19
I0
sg20
I121
sg21
I0
sg22
I0
sg23
I0
sg24
I0
sbssg25
S'\xef\xe5\xf9%\xce8\xcb?\xbe&\x0b5t\xb7\xa5\x90'
p1553
ssS'_var_www_python_ci_adptv_lib_python2_7_site-packages_django_core_servers_basehttp'
p1554
(dp1555
g6
(dp1556
g8
S'_var_www_python_ci_adptv_lib_python2_7_site-packages_django_core_servers_basehttp.html'
p1557
sg10
S'/var/www/python_ci/adptv/lib/python2.7/site-packages/django/core/servers/basehttp'
p1558
sg12
g13
(g14
g15
NtRp1559
(dp1560
g18
I1
sg19
I0
sg20
I89
sg21
I0
sg22
I0
sg23
I59
sg24
I0
sbssg25
S'\xeb\xd2X,\xd9\x941\xde7\x1e\xc6x\xbf\x11!\x1c'
p1561
ssS'_var_www_python_ci_adptv_lib_python2_7_site-packages_django_template_context'
p1562
(dp1563
g6
(dp1564
g8
S'_var_www_python_ci_adptv_lib_python2_7_site-packages_django_template_context.html'
p1565
sg10
S'/var/www/python_ci/adptv/lib/python2.7/site-packages/django/template/context'
p1566
sg12
g13
(g14
g15
NtRp1567
(dp1568
g18
I1
sg19
I0
sg20
I104
sg21
I0
sg22
I0
sg23
I72
sg24
I0
sbssg25
S'p<;=\xee{\x17\x93\xb9\t\xb0R8r\xd2N'
p1569
ssS'_var_www_python_ci_adptv_lib_python2_7_site-packages_django_forms_fields'
p1570
(dp1571
g6
(dp1572
g8
S'_var_www_python_ci_adptv_lib_python2_7_site-packages_django_forms_fields.html'
p1573
sg10
S'/var/www/python_ci/adptv/lib/python2.7/site-packages/django/forms/fields'
p1574
sg12
g13
(g14
g15
NtRp1575
(dp1576
g18
I1
sg19
I0
sg20
I640
sg21
I0
sg22
I0
sg23
I473
sg24
I0
sbssg25
S'{\xdb>\x87H(\x1a\xec\xe7\x9dO;\x19\x8b\x084'
p1577
ssS'_var_www_python_ci_adptv_lib_python2_7_site-packages_django_db___init__'
p1578
(dp1579
g6
(dp1580
g8
S'_var_www_python_ci_adptv_lib_python2_7_site-packages_django_db___init__.html'
p1581
sg10
S'/var/www/python_ci/adptv/lib/python2.7/site-packages/django/db/__init__'
p1582
sg12
g13
(g14
g15
NtRp1583
(dp1584
g18
I1
sg19
I0
sg20
I45
sg21
I0
sg22
I0
sg23
I21
sg24
I0
sbssg25
S'|p \x8ey\xfd\xa1\xc4g\x1f\x1b\xd4B>~\xce'
p1585
ssS'_var_www_python_ci_adptv_lib_python2_7_site-packages_django_nose_plugin'
p1586
(dp1587
g6
(dp1588
g8
S'_var_www_python_ci_adptv_lib_python2_7_site-packages_django_nose_plugin.html'
p1589
sg10
S'/var/www/python_ci/adptv/lib/python2.7/site-packages/django_nose/plugin'
p1590
sg12
g13
(g14
g15
NtRp1591
(dp1592
g18
I1
sg19
I0
sg20
I81
sg21
I0
sg22
I0
sg23
I29
sg24
I0
sbssg25
S'\xa50\xd2\xf6\xa6OF\x04\x13\xed\x93\x0e\xd2J\xd8\xb4'
p1593
ssS'_var_www_python_ci_adptv_lib_python2_7_site-packages_django_db_models_base'
p1594
(dp1595
g6
(dp1596
g8
S'_var_www_python_ci_adptv_lib_python2_7_site-packages_django_db_models_base.html'
p1597
sg10
S'/var/www/python_ci/adptv/lib/python2.7/site-packages/django/db/models/base'
p1598
sg12
g13
(g14
g15
NtRp1599
(dp1600
g18
I1
sg19
I0
sg20
I559
sg21
I0
sg22
I0
sg23
I478
sg24
I0
sbssg25
S'\xa3c\r\xf4\x07\xad\x10\x89&\xfb\xef\xdd\x9f&\x8fh'
p1601
ssS'_var_www_python_ci_adptv_lib_python2_7_site-packages_django_utils_translation_trans_real'
p1602
(dp1603
g6
(dp1604
g8
S'_var_www_python_ci_adptv_lib_python2_7_site-packages_django_utils_translation_trans_real.html'
p1605
sg10
S'/var/www/python_ci/adptv/lib/python2.7/site-packages/django/utils/translation/trans_real'
p1606
sg12
g13
(g14
g15
NtRp1607
(dp1608
g18
I1
sg19
I0
sg20
I411
sg21
I0
sg22
I0
sg23
I284
sg24
I0
sbssg25
S'\xff\xe1\xc5,\x03\xecBSE\xa6\xcbZ)\x94\x9e\xb3'
p1609
ssS'_var_www_python_ci_adptv_lib_python2_7_site-packages_pytz___init__'
p1610
(dp1611
g6
(dp1612
g8
S'_var_www_python_ci_adptv_lib_python2_7_site-packages_pytz___init__.html'
p1613
sg10
S'/var/www/python_ci/adptv/lib/python2.7/site-packages/pytz/__init__'
p1614
sg12
g13
(g14
g15
NtRp1615
(dp1616
g18
I1
sg19
I0
sg20
I181
sg21
I0
sg22
I0
sg23
I110
sg24
I0
sbssg25
S'9\xf7~%x\xc3,\xe77W\xc0`\xe1\x98w\xf2'
p1617
ssS'_var_www_python_ci_adptv_lib_python2_7_site-packages_django_core___init__'
p1618
(dp1619
g6
(dp1620
g8
S'_var_www_python_ci_adptv_lib_python2_7_site-packages_django_core___init__.html'
p1621
sg10
S'/var/www/python_ci/adptv/lib/python2.7/site-packages/django/core/__init__'
p1622
sg12
g13
(g14
g15
NtRp1623
(dp1624
g18
I1
sg19
I0
sg20
I0
sg21
I0
sg22
I0
sg23
I0
sg24
I0
sbssg25
S'\xca\xf5\x9f\x7f\x88\xdfa\x831|T\x1d\xbc}\xa5v'
p1625
ssS'_var_www_python_ci_adptv_lib_python2_7_site-packages_django_core_files_uploadedfile'
p1626
(dp1627
g6
(dp1628
g8
S'_var_www_python_ci_adptv_lib_python2_7_site-packages_django_core_files_uploadedfile.html'
p1629
sg10
S'/var/www/python_ci/adptv/lib/python2.7/site-packages/django/core/files/uploadedfile'
p1630
sg12
g13
(g14
g15
NtRp1631
(dp1632
g18
I1
sg19
I0
sg20
I60
sg21
I0
sg22
I0
sg23
I32
sg24
I0
sbssg25
S'Wl\xd0S\xd7\xc1;\x1f\xce\x1dj\xd7\n5\xd9\x80'
p1633
ssS'_var_www_python_ci_adptv_lib_python2_7_site-packages_django_db_models___init__'
p1634
(dp1635
g6
(dp1636
g8
S'_var_www_python_ci_adptv_lib_python2_7_site-packages_django_db_models___init__.html'
p1637
sg10
S'/var/www/python_ci/adptv/lib/python2.7/site-packages/django/db/models/__init__'
p1638
sg12
g13
(g14
g15
NtRp1639
(dp1640
g18
I1
sg19
I0
sg20
I20
sg21
I0
sg22
I0
sg23
I5
sg24
I0
sbssg25
S'$\x11\xda\x17=\xa2D\xbd\xbe2M{\xcd\xcb\xe9\xe7'
p1641
ssS'_var_www_python_ci_adptv_lib_python2_7_site-packages_django_db_backends___init__'
p1642
(dp1643
g6
(dp1644
g8
S'_var_www_python_ci_adptv_lib_python2_7_site-packages_django_db_backends___init__.html'
p1645
sg10
S'/var/www/python_ci/adptv/lib/python2.7/site-packages/django/db/backends/__init__'
p1646
sg12
g13
(g14
g15
NtRp1647
(dp1648
g18
I1
sg19
I0
sg20
I542
sg21
I0
sg22
I0
sg23
I349
sg24
I0
sbssg25
S'T\x12\x92~\x1d\xfa\xfbF\x86\xff\xe8\xd2I\x11XB'
p1649
ssS'_var_www_python_ci_adptv_lib_python2_7_site-packages_django_db_utils'
p1650
(dp1651
g6
(dp1652
g8
S'_var_www_python_ci_adptv_lib_python2_7_site-packages_django_db_utils.html'
p1653
sg10
S'/var/www/python_ci/adptv/lib/python2.7/site-packages/django/db/utils'
p1654
sg12
g13
(g14
g15
NtRp1655
(dp1656
g18
I1
sg19
I0
sg20
I172
sg21
I0
sg22
I0
sg23
I111
sg24
I0
sbssg25
S'\x93`\x01y\xfc\xac\x96\x1d\x94oA\xe3`\x11\x88r'
p1657
ssS'_var_www_python_ci_adptv_lib_python2_7_site-packages_django_db_models_sql_where'
p1658
(dp1659
g6
(dp1660
g8
S'_var_www_python_ci_adptv_lib_python2_7_site-packages_django_db_models_sql_where.html'
p1661
sg10
S'/var/www/python_ci/adptv/lib/python2.7/site-packages/django/db/models/sql/where'
p1662
sg12
g13
(g14
g15
NtRp1663
(dp1664
g18
I1
sg19
I0
sg20
I230
sg21
I0
sg22
I0
sg23
I186
sg24
I0
sbssg25
S'\xd7 Xh\xd3\xf3 X\xf1\xa3\xfe\x8c\xb8\xa0\rK'
p1665
ssS'_var_www_python_ci_adptv_lib_python2_7_site-packages_unittest2_loader'
p1666
(dp1667
g6
(dp1668
g8
S'_var_www_python_ci_adptv_lib_python2_7_site-packages_unittest2_loader.html'
p1669
sg10
S'/var/www/python_ci/adptv/lib/python2.7/site-packages/unittest2/loader'
p1670
sg12
g13
(g14
g15
NtRp1671
(dp1672
g18
I1
sg19
I0
sg20
I202
sg21
I0
sg22
I0
sg23
I166
sg24
I0
sbssg25
S'\x0eW\xbc\x8fE\xda\xb1\xa3\xe5\x8f\xe6Yu9\x1bY'
p1673
ssS'_var_www_python_ci_adptv_lib_python2_7_site-packages_unittest2_runner'
p1674
(dp1675
g6
(dp1676
g8
S'_var_www_python_ci_adptv_lib_python2_7_site-packages_unittest2_runner.html'
p1677
sg10
S'/var/www/python_ci/adptv/lib/python2.7/site-packages/unittest2/runner'
p1678
sg12
g13
(g14
g15
NtRp1679
(dp1680
g18
I1
sg19
I0
sg20
I156
sg21
I0
sg22
I0
sg23
I125
sg24
I0
sbssg25
S'\xa5\x05\x81Y0\x1a\xee\x16\x14\xd8ab\xfeu/U'
p1681
ssS'_var_www_python_ci_adptv_lib_python2_7_site-packages_django_template_loaders___init__'
p1682
(dp1683
g6
(dp1684
g8
S'_var_www_python_ci_adptv_lib_python2_7_site-packages_django_template_loaders___init__.html'
p1685
sg10
S'/var/www/python_ci/adptv/lib/python2.7/site-packages/django/template/loaders/__init__'
p1686
sg12
g13
(g14
g15
NtRp1687
(dp1688
g18
I1
sg19
I0
sg20
I0
sg21
I0
sg22
I0
sg23
I0
sg24
I0
sbssg25
S'\xca\xf5\x9f\x7f\x88\xdfa\x831|T\x1d\xbc}\xa5v'
p1689
ssS'_var_www_python_ci_adptv_lib_python2_7_site-packages_django_test_signals'
p1690
(dp1691
g6
(dp1692
g8
S'_var_www_python_ci_adptv_lib_python2_7_site-packages_django_test_signals.html'
p1693
sg10
S'/var/www/python_ci/adptv/lib/python2.7/site-packages/django/test/signals'
p1694
sg12
g13
(g14
g15
NtRp1695
(dp1696
g18
I1
sg19
I0
sg20
I50
sg21
I0
sg22
I0
sg23
I35
sg24
I0
sbssg25
S'ge\x9f\x82 \xec\x0c\x05\x1b\x13\x1ah\x1fYor'
p1697
ssS'_var_www_python_ci_adptv_lib_python2_7_site-packages_nose___init__'
p1698
(dp1699
g6
(dp1700
g8
S'_var_www_python_ci_adptv_lib_python2_7_site-packages_nose___init__.html'
p1701
sg10
S'/var/www/python_ci/adptv/lib/python2.7/site-packages/nose/__init__'
p1702
sg12
g13
(g14
g15
NtRp1703
(dp1704
g18
I1
sg19
I0
sg20
I7
sg21
I0
sg22
I0
sg23
I0
sg24
I0
sbssg25
S'\xa7\xc83\xa3:\xc5\xf8\xc8\x0e\xc5\xccZy\x0fY\x07'
p1705
ssS'_var_www_python_ci_adptv_lib_python2_7_site-packages_django_contrib___init__'
p1706
(dp1707
g6
(dp1708
g8
S'_var_www_python_ci_adptv_lib_python2_7_site-packages_django_contrib___init__.html'
p1709
sg10
S'/var/www/python_ci/adptv/lib/python2.7/site-packages/django/contrib/__init__'
p1710
sg12
g13
(g14
g15
NtRp1711
(dp1712
g18
I1
sg19
I0
sg20
I0
sg21
I0
sg22
I0
sg23
I0
sg24
I0
sbssg25
S'\xca\xf5\x9f\x7f\x88\xdfa\x831|T\x1d\xbc}\xa5v'
p1713
ssS'_var_www_python_ci_adptv_lib_python2_7_site-packages_django_forms_formsets'
p1714
(dp1715
g6
(dp1716
g8
S'_var_www_python_ci_adptv_lib_python2_7_site-packages_django_forms_formsets.html'
p1717
sg10
S'/var/www/python_ci/adptv/lib/python2.7/site-packages/django/forms/formsets'
p1718
sg12
g13
(g14
g15
NtRp1719
(dp1720
g18
I1
sg19
I0
sg20
I214
sg21
I0
sg22
I0
sg23
I155
sg24
I0
sbssg25
S'\x05*\x85\xe6{c\xf3WX\xb5\x12$]&J\xe0'
p1721
ssS'_var_www_python_ci_adptv_lib_python2_7_site-packages_nose_suite'
p1722
(dp1723
g6
(dp1724
g8
S'_var_www_python_ci_adptv_lib_python2_7_site-packages_nose_suite.html'
p1725
sg10
S'/var/www/python_ci/adptv/lib/python2.7/site-packages/nose/suite'
p1726
sg12
g13
(g14
g15
NtRp1727
(dp1728
g18
I1
sg19
I0
sg20
I396
sg21
I0
sg22
I0
sg23
I164
sg24
I0
sbssg25
S'\xaa\x8er\xef\xcel8\xaeE\xa5\xb5\xfa\xebz\x8dU'
p1729
ssS'_var_www_python_ci_adptv_lib_python2_7_site-packages_django_core_files_move'
p1730
(dp1731
g6
(dp1732
g8
S'_var_www_python_ci_adptv_lib_python2_7_site-packages_django_core_files_move.html'
p1733
sg10
S'/var/www/python_ci/adptv/lib/python2.7/site-packages/django/core/files/move'
p1734
sg12
g13
(g14
g15
NtRp1735
(dp1736
g18
I1
sg19
I0
sg20
I47
sg21
I0
sg22
I0
sg23
I40
sg24
I0
sbssg25
S'u\xd5\xf9R\x96\xb4M\xdd;\r\x98\x12\xcd\x1a\tH'
p1737
ssS'_var_www_python_ci_adptv_lib_python2_7_site-packages_django_core_exceptions'
p1738
(dp1739
g6
(dp1740
g8
S'_var_www_python_ci_adptv_lib_python2_7_site-packages_django_core_exceptions.html'
p1741
sg10
S'/var/www/python_ci/adptv/lib/python2.7/site-packages/django/core/exceptions'
p1742
sg12
g13
(g14
g15
NtRp1743
(dp1744
g18
I1
sg19
I0
sg20
I76
sg21
I0
sg22
I0
sg23
I40
sg24
I0
sbssg25
S"(}/8r'\xc6\x101\xa5\xe5\xbeS\xe3Q\x8f"
p1745
ssS'_var_www_python_ci_adptv_lib_python2_7_site-packages_django_contrib_staticfiles_utils'
p1746
(dp1747
g6
(dp1748
g8
S'_var_www_python_ci_adptv_lib_python2_7_site-packages_django_contrib_staticfiles_utils.html'
p1749
sg10
S'/var/www/python_ci/adptv/lib/python2.7/site-packages/django/contrib/staticfiles/utils'
p1750
sg12
g13
(g14
g15
NtRp1751
(dp1752
g18
I1
sg19
I0
sg20
I37
sg21
I0
sg22
I0
sg23
I30
sg24
I0
sbssg25
S'\xb6M\xd2B\xf1\x9e\x87\xba\r|\xc6\xed\x1c\xdb0\x88'
p1753
ssS'_var_www_python_ci_adptv_lib_python2_7_site-packages_django_core_wsgi'
p1754
(dp1755
g6
(dp1756
g8
S'_var_www_python_ci_adptv_lib_python2_7_site-packages_django_core_wsgi.html'
p1757
sg10
S'/var/www/python_ci/adptv/lib/python2.7/site-packages/django/core/wsgi'
p1758
sg12
g13
(g14
g15
NtRp1759
(dp1760
g18
I1
sg19
I0
sg20
I3
sg21
I0
sg22
I0
sg23
I1
sg24
I0
sbssg25
S'\x05@\x04,\x8d\xbb\xc9\x97\xb6\xcc;\x06\t\xbb\xb7\xfb'
p1761
ssS'_var_www_python_ci_adptv_lib_python2_7_site-packages_nose_plugins___init__'
p1762
(dp1763
g6
(dp1764
g8
S'_var_www_python_ci_adptv_lib_python2_7_site-packages_nose_plugins___init__.html'
p1765
sg10
S'/var/www/python_ci/adptv/lib/python2.7/site-packages/nose/plugins/__init__'
p1766
sg12
g13
(g14
g15
NtRp1767
(dp1768
g18
I1
sg19
I0
sg20
I6
sg21
I0
sg22
I0
sg23
I2
sg24
I0
sbssg25
S'K\xef\xbf\xfb\xbe\x83\xdf\x95\xd2\xac\xd2\x92\x88\x93\xcae'
p1769
ssS'_var_www_python_ci_adptv_lib_python2_7_site-packages_django_utils___init__'
p1770
(dp1771
g6
(dp1772
g8
S'_var_www_python_ci_adptv_lib_python2_7_site-packages_django_utils___init__.html'
p1773
sg10
S'/var/www/python_ci/adptv/lib/python2.7/site-packages/django/utils/__init__'
p1774
sg12
g13
(g14
g15
NtRp1775
(dp1776
g18
I1
sg19
I0
sg20
I0
sg21
I0
sg22
I0
sg23
I0
sg24
I0
sbssg25
S'\xca\xf5\x9f\x7f\x88\xdfa\x831|T\x1d\xbc}\xa5v'
p1777
ssS'api___init__'
p1778
(dp1779
g6
(dp1780
g8
S'api___init__.html'
p1781
sg10
S'api/__init__'
p1782
sg12
g13
(g14
g15
NtRp1783
(dp1784
g18
I1
sg19
I0
sg20
I0
sg21
I0
sg22
I0
sg23
I0
sg24
I0
sbssg25
S'\xca\xf5\x9f\x7f\x88\xdfa\x831|T\x1d\xbc}\xa5v'
p1785
ssS'_var_www_python_ci_adptv_lib_python2_7_site-packages_django_http_utils'
p1786
(dp1787
g6
(dp1788
g8
S'_var_www_python_ci_adptv_lib_python2_7_site-packages_django_http_utils.html'
p1789
sg10
S'/var/www/python_ci/adptv/lib/python2.7/site-packages/django/http/utils'
p1790
sg12
g13
(g14
g15
NtRp1791
(dp1792
g18
I1
sg19
I0
sg20
I43
sg21
I0
sg22
I0
sg23
I39
sg24
I0
sbssg25
S'9u\xbeG\x83\xfe\x1cu,\xaf\xdb\x19\xb0\x12l\xc3'
p1793
ssS'_var_www_python_ci_adptv_lib_python2_7_site-packages_nose_result'
p1794
(dp1795
g6
(dp1796
g8
S'_var_www_python_ci_adptv_lib_python2_7_site-packages_nose_result.html'
p1797
sg10
S'/var/www/python_ci/adptv/lib/python2.7/site-packages/nose/result'
p1798
sg12
g13
(g14
g15
NtRp1799
(dp1800
g18
I1
sg19
I0
sg20
I131
sg21
I0
sg22
I0
sg23
I79
sg24
I0
sbssg25
S"f\xf3\xe4\xbbU\xe4\x97(K\xa6a\xe9\xf8'\x8fp"
p1801
ssS'_var_www_python_ci_adptv_lib_python2_7_site-packages_nose_plugins_prof'
p1802
(dp1803
g6
(dp1804
g8
S'_var_www_python_ci_adptv_lib_python2_7_site-packages_nose_plugins_prof.html'
p1805
sg10
S'/var/www/python_ci/adptv/lib/python2.7/site-packages/nose/plugins/prof'
p1806
sg12
g13
(g14
g15
NtRp1807
(dp1808
g18
I1
sg19
I0
sg20
I93
sg21
I0
sg22
I0
sg23
I56
sg24
I0
sbssg25
S'\x9fuw\x1f\xdd,\x18\xcf.+=\x93\xdf\xeeN['
p1809
ssS'_var_www_python_ci_adptv_lib_python2_7_site-packages_unittest2_case'
p1810
(dp1811
g6
(dp1812
g8
S'_var_www_python_ci_adptv_lib_python2_7_site-packages_unittest2_case.html'
p1813
sg10
S'/var/www/python_ci/adptv/lib/python2.7/site-packages/unittest2/case'
p1814
sg12
g13
(g14
g15
NtRp1815
(dp1816
g18
I1
sg19
I0
sg20
I576
sg21
I0
sg22
I0
sg23
I456
sg24
I0
sbssg25
S'\xfe\xb7\x8d\xeb\xe3\x01\xd2\x9e\xb3!\xdf\xff\x9c\n\xa8.'
p1817
ssS'_var_www_python_ci_adptv_lib_python2_7_site-packages_unittest2_collector'
p1818
(dp1819
g6
(dp1820
g8
S'_var_www_python_ci_adptv_lib_python2_7_site-packages_unittest2_collector.html'
p1821
sg10
S'/var/www/python_ci/adptv/lib/python2.7/site-packages/unittest2/collector'
p1822
sg12
g13
(g14
g15
NtRp1823
(dp1824
g18
I1
sg19
I0
sg20
I7
sg21
I0
sg22
I0
sg23
I3
sg24
I0
sbssg25
S'"\x8c\x87\xc5\x19s\xfe7 \x93\x0e\x1c\x08\x95\x08\xc3'
p1825
ssS'_var_www_python_ci_adptv_lib_python2_7_site-packages_django_core_urlresolvers'
p1826
(dp1827
g6
(dp1828
g8
S'_var_www_python_ci_adptv_lib_python2_7_site-packages_django_core_urlresolvers.html'
p1829
sg10
S'/var/www/python_ci/adptv/lib/python2.7/site-packages/django/core/urlresolvers'
p1830
sg12
g13
(g14
g15
NtRp1831
(dp1832
g18
I1
sg19
I0
sg20
I359
sg21
I0
sg22
I0
sg23
I284
sg24
I0
sbssg25
S'Q\xd6\xbb\xfa\xf4\xc0\xf9\x91\xd0\xc0\xeeVp\x8c)\xa9'
p1833
ssS'_var_www_python_ci_adptv_lib_python2_7_site-packages_django_contrib_staticfiles_finders'
p1834
(dp1835
g6
(dp1836
g8
S'_var_www_python_ci_adptv_lib_python2_7_site-packages_django_contrib_staticfiles_finders.html'
p1837
sg10
S'/var/www/python_ci/adptv/lib/python2.7/site-packages/django/contrib/staticfiles/finders'
p1838
sg12
g13
(g14
g15
NtRp1839
(dp1840
g18
I1
sg19
I0
sg20
I151
sg21
I0
sg22
I0
sg23
I113
sg24
I0
sbssg25
S'\x14\x83j\xd8b\xedjV\x7f\x07,5q\x13\x97\xe6'
p1841
ssS'_var_www_python_ci_adptv_lib_python2_7_site-packages_unittest2_compatibility'
p1842
(dp1843
g6
(dp1844
g8
S'_var_www_python_ci_adptv_lib_python2_7_site-packages_unittest2_compatibility.html'
p1845
sg10
S'/var/www/python_ci/adptv/lib/python2.7/site-packages/unittest2/compatibility'
p1846
sg12
g13
(g14
g15
NtRp1847
(dp1848
g18
I1
sg19
I0
sg20
I42
sg21
I0
sg22
I0
sg23
I33
sg24
I0
sbssg25
S'\xd6\xca/qs\xda2{\x86iI\xa4^\x1dT\x9b'
p1849
ssS'_var_www_python_ci_adptv_lib_python2_7_site-packages_django_db_models_signals'
p1850
(dp1851
g6
(dp1852
g8
S'_var_www_python_ci_adptv_lib_python2_7_site-packages_django_db_models_signals.html'
p1853
sg10
S'/var/www/python_ci/adptv/lib/python2.7/site-packages/django/db/models/signals'
p1854
sg12
g13
(g14
g15
NtRp1855
(dp1856
g18
I1
sg19
I0
sg20
I11
sg21
I0
sg22
I0
sg23
I0
sg24
I0
sbssg25
S'\x025!\xbd\xfd%\xdc\x0cD"74\xef\xfc\x9b\xa3'
p1857
ssS'_var_www_python_ci_adptv_lib_python2_7_site-packages_django_core_management_commands_test'
p1858
(dp1859
g6
(dp1860
g8
S'_var_www_python_ci_adptv_lib_python2_7_site-packages_django_core_management_commands_test.html'
p1861
sg10
S'/var/www/python_ci/adptv/lib/python2.7/site-packages/django/core/management/commands/test'
p1862
sg12
g13
(g14
g15
NtRp1863
(dp1864
g18
I1
sg19
I0
sg20
I46
sg21
I0
sg22
I0
sg23
I5
sg24
I0
sbssg25
S'\xf2\n\xec\xc8\xb0M>\xa5\xf6\xb4MQ\xb2\xf0\x80W'
p1865
ssS'_var_www_python_ci_adptv_lib_python2_7_site-packages_django_db_transaction'
p1866
(dp1867
g6
(dp1868
g8
S'_var_www_python_ci_adptv_lib_python2_7_site-packages_django_db_transaction.html'
p1869
sg10
S'/var/www/python_ci/adptv/lib/python2.7/site-packages/django/db/transaction'
p1870
sg12
g13
(g14
g15
NtRp1871
(dp1872
g18
I1
sg19
I0
sg20
I188
sg21
I0
sg22
I0
sg23
I143
sg24
I0
sbssg25
S':\xf5\xcc7p\xe6}g\xaf\xe5\xb2\x00+\x0b\xc7\xe0'
p1873
ssS'_var_www_python_ci_adptv_lib_python2_7_site-packages_django_middleware_csrf'
p1874
(dp1875
g6
(dp1876
g8
S'_var_www_python_ci_adptv_lib_python2_7_site-packages_django_middleware_csrf.html'
p1877
sg10
S'/var/www/python_ci/adptv/lib/python2.7/site-packages/django/middleware/csrf'
p1878
sg12
g13
(g14
g15
NtRp1879
(dp1880
g18
I1
sg19
I0
sg20
I81
sg21
I0
sg22
I0
sg23
I56
sg24
I0
sbssg25
S'\x03G\x84\xe3\xde5\xa7\xa9\x10k\x8c\xa1G|\xdc\xba'
p1881
ssS'_var_www_python_ci_adptv_lib_python2_7_site-packages_django_db_models_related'
p1882
(dp1883
g6
(dp1884
g8
S'_var_www_python_ci_adptv_lib_python2_7_site-packages_django_db_models_related.html'
p1885
sg10
S'/var/www/python_ci/adptv/lib/python2.7/site-packages/django/db/models/related'
p1886
sg12
g13
(g14
g15
NtRp1887
(dp1888
g18
I1
sg19
I0
sg20
I35
sg21
I0
sg22
I0
sg23
I22
sg24
I0
sbssg25
S'A\xc0\x8fs\xd3\xcbu\xe1j\x87\xf2\xe7\xa3pOe'
p1889
ssS'_var_www_python_ci_adptv_lib_python2_7_site-packages_django_core_files_images'
p1890
(dp1891
g6
(dp1892
g8
S'_var_www_python_ci_adptv_lib_python2_7_site-packages_django_core_files_images.html'
p1893
sg10
S'/var/www/python_ci/adptv/lib/python2.7/site-packages/django/core/files/images'
p1894
sg12
g13
(g14
g15
NtRp1895
(dp1896
g18
I1
sg19
I0
sg20
I43
sg21
I0
sg22
I0
sg23
I34
sg24
I0
sbssg25
S'Z\xe7k\x87\x0c]\xa6@\x18@T,E\x1d\x14\x90'
p1897
ssS'_var_www_python_ci_adptv_lib_python2_7_site-packages_django_db_models_manager'
p1898
(dp1899
g6
(dp1900
g8
S'_var_www_python_ci_adptv_lib_python2_7_site-packages_django_db_models_manager.html'
p1901
sg10
S'/var/www/python_ci/adptv/lib/python2.7/site-packages/django/db/models/manager'
p1902
sg12
g13
(g14
g15
NtRp1903
(dp1904
g18
I1
sg19
I0
sg20
I170
sg21
I0
sg22
I0
sg23
I101
sg24
I0
sbssg25
S'\x8e\xe4\xcf\xb0pC\xc3\xc7>\x1344\x0f\xa3b '
p1905
ssS'_var_www_python_ci_adptv_lib_python2_7_site-packages_unittest2___init__'
p1906
(dp1907
g6
(dp1908
g8
S'_var_www_python_ci_adptv_lib_python2_7_site-packages_unittest2___init__.html'
p1909
sg10
S'/var/www/python_ci/adptv/lib/python2.7/site-packages/unittest2/__init__'
p1910
sg12
g13
(g14
g15
NtRp1911
(dp1912
g18
I1
sg19
I0
sg20
I17
sg21
I0
sg22
I0
sg23
I2
sg24
I0
sbssg25
S'\xb0\xfb\x8ce\x1f\xef\xc0\x17\xeb\xc5*\xa0\x8c\xa9\xa1\xe6'
p1913
ssS'_var_www_python_ci_adptv_lib_python2_7_site-packages_nose_inspector'
p1914
(dp1915
g6
(dp1916
g8
S'_var_www_python_ci_adptv_lib_python2_7_site-packages_nose_inspector.html'
p1917
sg10
S'/var/www/python_ci/adptv/lib/python2.7/site-packages/nose/inspector'
p1918
sg12
g13
(g14
g15
NtRp1919
(dp1920
g18
I1
sg19
I0
sg20
I122
sg21
I0
sg22
I0
sg23
I107
sg24
I0
sbssg25
S'\xb9\n\xfe\xbc\x1cy"\xc1\x0f\xd7\xf9\xfb\xd1\x03\x7f\xf8'
p1921
ssS'_var_www_python_ci_adptv_lib_python2_7_site-packages_django_utils_module_loading'
p1922
(dp1923
g6
(dp1924
g8
S'_var_www_python_ci_adptv_lib_python2_7_site-packages_django_utils_module_loading.html'
p1925
sg10
S'/var/www/python_ci/adptv/lib/python2.7/site-packages/django/utils/module_loading'
p1926
sg12
g13
(g14
g15
NtRp1927
(dp1928
g18
I1
sg19
I0
sg20
I66
sg21
I0
sg22
I0
sg23
I51
sg24
I0
sbssg25
S'Uc|\x91\x12\xe4\xdf\x17\xad\xc5\x9b\x86N2\x82\x9a'
p1929
ssS'_var_www_python_ci_adptv_lib_python2_7_site-packages_django_core_servers___init__'
p1930
(dp1931
g6
(dp1932
g8
S'_var_www_python_ci_adptv_lib_python2_7_site-packages_django_core_servers___init__.html'
p1933
sg10
S'/var/www/python_ci/adptv/lib/python2.7/site-packages/django/core/servers/__init__'
p1934
sg12
g13
(g14
g15
NtRp1935
(dp1936
g18
I1
sg19
I0
sg20
I0
sg21
I0
sg22
I0
sg23
I0
sg24
I0
sbssg25
S'\xca\xf5\x9f\x7f\x88\xdfa\x831|T\x1d\xbc}\xa5v'
p1937
ssS'_var_www_python_ci_adptv_lib_python2_7_site-packages_nose_plugins_builtin'
p1938
(dp1939
g6
(dp1940
g8
S'_var_www_python_ci_adptv_lib_python2_7_site-packages_nose_plugins_builtin.html'
p1941
sg10
S'/var/www/python_ci/adptv/lib/python2.7/site-packages/nose/plugins/builtin'
p1942
sg12
g13
(g14
g15
NtRp1943
(dp1944
g18
I1
sg19
I0
sg20
I12
sg21
I0
sg22
I0
sg23
I4
sg24
I0
sbssg25
S'8\x01L]\xf8\xf9)7^\xf9t\xfc\xbdq\xa8\\'
p1945
ssS'_var_www_python_ci_adptv_lib_python2_7_site-packages_nose_config'
p1946
(dp1947
g6
(dp1948
g8
S'_var_www_python_ci_adptv_lib_python2_7_site-packages_nose_config.html'
p1949
sg10
S'/var/www/python_ci/adptv/lib/python2.7/site-packages/nose/config'
p1950
sg12
g13
(g14
g15
NtRp1951
(dp1952
g18
I1
sg19
I0
sg20
I350
sg21
I0
sg22
I0
sg23
I140
sg24
I0
sbssg25
S'\x99=\r\xc2\xee\xc2\x92v8\xc5\x01yHjQ\xeb'
p1953
ssS'_var_www_python_ci_adptv_lib_python2_7_site-packages_django_utils_dateparse'
p1954
(dp1955
g6
(dp1956
g8
S'_var_www_python_ci_adptv_lib_python2_7_site-packages_django_utils_dateparse.html'
p1957
sg10
S'/var/www/python_ci/adptv/lib/python2.7/site-packages/django/utils/dateparse'
p1958
sg12
g13
(g14
g15
NtRp1959
(dp1960
g18
I1
sg19
I0
sg20
I38
sg21
I0
sg22
I0
sg23
I27
sg24
I0
sbssg25
S"hE\x07\xf9GW\xe1\x01WI'<k\xeeh\xac"
p1961
ssS'_var_www_python_ci_adptv_lib_python2_7_site-packages_django_db_models_sql___init__'
p1962
(dp1963
g6
(dp1964
g8
S'_var_www_python_ci_adptv_lib_python2_7_site-packages_django_db_models_sql___init__.html'
p1965
sg10
S'/var/www/python_ci/adptv/lib/python2.7/site-packages/django/db/models/sql/__init__'
p1966
sg12
g13
(g14
g15
NtRp1967
(dp1968
g18
I1
sg19
I0
sg20
I6
sg21
I0
sg22
I0
sg23
I0
sg24
I0
sbssg25
S'\x1c\xc2@\xa8\xcd9\xbe\x01;Hd+\xda.\xae\xd3'
p1969
ssS'_var_www_python_ci_adptv_lib_python2_7_site-packages_django_utils_unittest_util'
p1970
(dp1971
g6
(dp1972
g8
S'_var_www_python_ci_adptv_lib_python2_7_site-packages_django_utils_unittest_util.html'
p1973
sg10
S'/var/www/python_ci/adptv/lib/python2.7/site-packages/django/utils/unittest/util'
p1974
sg12
g13
(g14
g15
NtRp1975
(dp1976
g18
I1
sg19
I0
sg20
I74
sg21
I0
sg22
I0
sg23
I67
sg24
I0
sbssg25
S')\xb0\xd3\xe9\xb4\x86\xbf\x1f\xaaI\xefA\xbf\x9a\xd3\x99'
p1977
ssS'_var_www_python_ci_adptv_lib_python2_7_site-packages_django_core_handlers___init__'
p1978
(dp1979
g6
(dp1980
g8
S'_var_www_python_ci_adptv_lib_python2_7_site-packages_django_core_handlers___init__.html'
p1981
sg10
S'/var/www/python_ci/adptv/lib/python2.7/site-packages/django/core/handlers/__init__'
p1982
sg12
g13
(g14
g15
NtRp1983
(dp1984
g18
I1
sg19
I0
sg20
I0
sg21
I0
sg22
I0
sg23
I0
sg24
I0
sbssg25
S'\xca\xf5\x9f\x7f\x88\xdfa\x831|T\x1d\xbc}\xa5v'
p1985
ssS'_var_www_python_ci_adptv_lib_python2_7_site-packages_django_core_signing'
p1986
(dp1987
g6
(dp1988
g8
S'_var_www_python_ci_adptv_lib_python2_7_site-packages_django_core_signing.html'
p1989
sg10
S'/var/www/python_ci/adptv/lib/python2.7/site-packages/django/core/signing'
p1990
sg12
g13
(g14
g15
NtRp1991
(dp1992
g18
I1
sg19
I0
sg20
I86
sg21
I0
sg22
I0
sg23
I54
sg24
I0
sbssg25
S"T\xea\xe3\x07i\xf5\x125g\x00\x8d\n'\xb5\xcf@"
p1993
ssS'_var_www_python_ci_adptv_lib_python2_7_site-packages_django_core_management_commands___init__'
p1994
(dp1995
g6
(dp1996
g8
S'_var_www_python_ci_adptv_lib_python2_7_site-packages_django_core_management_commands___init__.html'
p1997
sg10
S'/var/www/python_ci/adptv/lib/python2.7/site-packages/django/core/management/commands/__init__'
p1998
sg12
g13
(g14
g15
NtRp1999
(dp2000
g18
I1
sg19
I0
sg20
I0
sg21
I0
sg22
I0
sg23
I0
sg24
I0
sbssg25
S'\xca\xf5\x9f\x7f\x88\xdfa\x831|T\x1d\xbc}\xa5v'
p2001
ssS'_var_www_python_ci_adptv_lib_python2_7_site-packages_django_contrib_staticfiles_handlers'
p2002
(dp2003
g6
(dp2004
g8
S'_var_www_python_ci_adptv_lib_python2_7_site-packages_django_contrib_staticfiles_handlers.html'
p2005
sg10
S'/var/www/python_ci/adptv/lib/python2.7/site-packages/django/contrib/staticfiles/handlers'
p2006
sg12
g13
(g14
g15
NtRp2007
(dp2008
g18
I1
sg19
I0
sg20
I41
sg21
I0
sg22
I0
sg23
I25
sg24
I0
sbssg25
S'e9\xd8\x8d\x91\xb3\x18\xb2\rj\xbd\xfe\x85\xcb*\x80'
p2009
ssS'_var_www_python_ci_adptv_lib_python2_7_site-packages_nose_plugins_cover'
p2010
(dp2011
g6
(dp2012
g8
S'_var_www_python_ci_adptv_lib_python2_7_site-packages_nose_plugins_cover.html'
p2013
sg10
S'/var/www/python_ci/adptv/lib/python2.7/site-packages/nose/plugins/cover'
p2014
sg12
g13
(g14
g15
NtRp2015
(dp2016
g18
I1
sg19
I0
sg20
I145
sg21
I0
sg22
I0
sg23
I92
sg24
I0
sbssg25
S'\xac\xda\xd2\x95h\xdb\xceb\xa9e,\x98\xc0Ev\x97'
p2017
ssS'_var_www_python_ci_adptv_lib_python2_7_site-packages_django_utils_http'
p2018
(dp2019
g6
(dp2020
g8
S'_var_www_python_ci_adptv_lib_python2_7_site-packages_django_utils_http.html'
p2021
sg10
S'/var/www/python_ci/adptv/lib/python2.7/site-packages/django/utils/http'
p2022
sg12
g13
(g14
g15
NtRp2023
(dp2024
g18
I1
sg19
I0
sg20
I130
sg21
I0
sg22
I0
sg23
I85
sg24
I0
sbssg25
S'\xac\xcaO\xb7C\x8a\x99\t\xaf\x0czj\n\xa6\xef\x00'
p2025
ssS'_var_www_python_ci_adptv_lib_python2_7_site-packages_django_dispatch_saferef'
p2026
(dp2027
g6
(dp2028
g8
S'_var_www_python_ci_adptv_lib_python2_7_site-packages_django_dispatch_saferef.html'
p2029
sg10
S'/var/www/python_ci/adptv/lib/python2.7/site-packages/django/dispatch/saferef'
p2030
sg12
g13
(g14
g15
NtRp2031
(dp2032
g18
I1
sg19
I0
sg20
I84
sg21
I0
sg22
I0
sg23
I40
sg24
I0
sbssg25
S'T4\xfd\t 8\xaa\xf0\xca\xce^"\xf5:8\xb8'
p2033
ssS'_var_www_python_ci_adptv_lib_python2_7_site-packages_rest_framework___init__'
p2034
(dp2035
g6
(dp2036
g8
S'_var_www_python_ci_adptv_lib_python2_7_site-packages_rest_framework___init__.html'
p2037
sg10
S'/var/www/python_ci/adptv/lib/python2.7/site-packages/rest_framework/__init__'
p2038
sg12
g13
(g14
g15
NtRp2039
(dp2040
g18
I1
sg19
I0
sg20
I8
sg21
I0
sg22
I0
sg23
I0
sg24
I0
sbssg25
S'\xf1\x8a\x85\x8e\x0c#\x0e\xb0<Zv>\xc1f\xf7`'
p2041
ssS'_var_www_python_ci_adptv_lib_python2_7_site-packages_nose_selector'
p2042
(dp2043
g6
(dp2044
g8
S'_var_www_python_ci_adptv_lib_python2_7_site-packages_nose_selector.html'
p2045
sg10
S'/var/www/python_ci/adptv/lib/python2.7/site-packages/nose/selector'
p2046
sg12
g13
(g14
g15
NtRp2047
(dp2048
g18
I1
sg19
I0
sg20
I134
sg21
I0
sg22
I0
sg23
I38
sg24
I0
sbssg25
S'-:\xf6\x1d\xe2-\xa7X\xca\xfb\xd5\xf7\xc3\xdb\xabA'
p2049
ssS'_var_www_python_ci_adptv_lib_python2_7_site-packages_django_db_models_fields_files'
p2050
(dp2051
g6
(dp2052
g8
S'_var_www_python_ci_adptv_lib_python2_7_site-packages_django_db_models_fields_files.html'
p2053
sg10
S'/var/www/python_ci/adptv/lib/python2.7/site-packages/django/db/models/fields/files'
p2054
sg12
g13
(g14
g15
NtRp2055
(dp2056
g18
I1
sg19
I0
sg20
I206
sg21
I0
sg22
I0
sg23
I138
sg24
I0
sbssg25
S':??\x1b\x108\xfc2\xfd\xeb4\xd3S\n\xe1\xdc'
p2057
ssS'_var_www_python_ci_adptv_lib_python2_7_site-packages_django_core_files___init__'
p2058
(dp2059
g6
(dp2060
g8
S'_var_www_python_ci_adptv_lib_python2_7_site-packages_django_core_files___init__.html'
p2061
sg10
S'/var/www/python_ci/adptv/lib/python2.7/site-packages/django/core/files/__init__'
p2062
sg12
g13
(g14
g15
NtRp2063
(dp2064
g18
I1
sg19
I0
sg20
I1
sg21
I0
sg22
I0
sg23
I0
sg24
I0
sbssg25
S'\x93\xf8\xbd[\xbcl\x80\x88}\xdb\xd6\xec\xb5{\x15\xb3'
p2065
ssS'_var_www_python_ci_adptv_lib_python2_7_site-packages_nose_tools___init__'
p2066
(dp2067
g6
(dp2068
g8
S'_var_www_python_ci_adptv_lib_python2_7_site-packages_nose_tools___init__.html'
p2069
sg10
S'/var/www/python_ci/adptv/lib/python2.7/site-packages/nose/tools/__init__'
p2070
sg12
g13
(g14
g15
NtRp2071
(dp2072
g18
I1
sg19
I0
sg20
I5
sg21
I0
sg22
I0
sg23
I0
sg24
I0
sbssg25
S'Sr\x96\x9d{E=\xd9731l\x9d\xb1\xd3\x82'
p2073
ssS'_var_www_python_ci_adptv_lib_python2_7_site-packages_django_db_models_query'
p2074
(dp2075
g6
(dp2076
g8
S'_var_www_python_ci_adptv_lib_python2_7_site-packages_django_db_models_query.html'
p2077
sg10
S'/var/www/python_ci/adptv/lib/python2.7/site-packages/django/db/models/query'
p2078
sg12
g13
(g14
g15
NtRp2079
(dp2080
g18
I1
sg19
I0
sg20
I889
sg21
I0
sg22
I0
sg23
I764
sg24
I0
sbssg25
S'\xe9\x1bB\xa1)rz\xf6]\xe3\xc20y}d\x90'
p2081
sssS'version'
p2082
S'3.7.1'
p2083
sS'settings'
p2084
S'\x98\xa8x\xfe"r\xb5K\x98\xb1N\\\x99\x9e\xf3\xe5'
p2085
sS'format'
p2086
I1
s.